(dp1
S'Alcatraz'
p2
(lp3
(S'CableCarMuseum'
S'2.9km'
p4
S'7min'
p5
tp6
a(S'FishermansWharf'
S'2.0km'
p7
S'4min'
p8
tp9
a(S'Pier39'
S'2.4km'
p10
S'5min'
p11
tp12
a(S'GhirardelliSquare'
S'1.6km'
p13
S'3min'
p14
tp15
a(S'GoldenGateBridge'
S'7.5km'
p16
S'9min'
p17
tp18
a(S'Chinatown'
S'3.1km'
p19
S'6min'
p20
tp21
a(S'CastroTheatre'
S'6.2km'
p22
S'13min'
p23
tp24
a(S'CityHall'
S'3.9km'
p25
S'8min'
p26
tp27
a(S'SFMOMA'
S'4.6km'
p28
S'11min'
p29
tp30
a(S'GoldenGatePark'
S'12.2km'
p31
S'17min'
p32
tp33
a(S'UnionSquare'
S'4.1km'
p34
S'9min'
p35
tp36
a(S'CoitTower'
S'3.0km'
p37
S'7min'
p38
tp39
a(S'SutroTower'
S'8.4km'
p40
S'18min'
p41
tp42
a(S'TransamericaPyramid'
S'3.2km'
p43
S'7min'
p44
tp45
a(S'USF'
S'6.3km'
p46
S'13min'
p47
tp48
asS'CableCarMuseum'
p49
(lp50
(S'FishermansWharf'
p51
S'1.6km'
p52
S'5min'
p53
tp54
a(S'Pier39'
p55
S'2.0km'
p56
S'6min'
p57
tp58
a(S'GhirardelliSquare'
p59
S'1.7km'
p60
S'5min'
p61
tp62
a(g2
g4
g5
tp63
a(S'GoldenGateBridge'
p64
S'8.6km'
p65
S'11min'
p66
tp67
a(S'Chinatown'
p68
S'0.7km'
p69
S'1min'
p70
tp71
a(S'CastroTheatre'
p72
S'5.3km'
p73
S'13min'
p74
tp75
a(S'CityHall'
p76
S'2.7km'
p77
S'7min'
p78
tp79
a(S'SFMOMA'
p80
S'2.2km'
p81
S'6min'
p82
tp83
a(S'GoldenGatePark'
p84
S'9.0km'
p85
S'20min'
p86
tp87
a(S'UnionSquare'
p88
S'0.95km'
p89
S'3min'
p90
tp91
a(S'CoitTower'
p92
S'1.9km'
p93
S'5min'
p94
tp95
a(S'SutroTower'
p96
S'7.6km'
p97
S'18min'
p98
tp99
a(S'TransamericaPyramid'
p100
S'0.9km'
p101
S'3min'
p102
tp103
a(S'USF'
p104
S'5.3km'
p105
S'13min'
p106
tp107
asg72
(lp108
(S'CableCarMuseum'
g73
g74
tp109
a(S'FishermansWharf'
S'6.7km'
p110
S'16min'
p111
tp112
a(S'Pier39'
S'7.0km'
p113
S'16min'
p114
tp115
a(S'GhirardelliSquare'
S'6.3km'
p116
S'15min'
p117
tp118
a(S'Alcatraz'
g22
g23
tp119
a(S'GoldenGateBridge'
S'13.1km'
p120
S'19min'
p121
tp122
a(S'Chinatown'
S'5.7km'
p123
S'14min'
p124
tp125
a(S'CityHall'
S'3.1km'
p126
S'8min'
p127
tp128
a(S'SFMOMA'
S'4.8km'
p129
S'12min'
p130
tp131
a(S'GoldenGatePark'
S'5.8km'
p132
S'11min'
p133
tp134
a(S'UnionSquare'
S'5.1km'
p135
S'13min'
p136
tp137
a(S'CoitTower'
S'7.5km'
p138
S'17min'
p139
tp140
a(S'SutroTower'
S'2.7km'
p141
S'11min'
p142
tp143
a(S'TransamericaPyramid'
S'6.5km'
p144
S'15min'
p145
tp146
a(S'USF'
S'2.7km'
p147
S'7min'
p148
tp149
asg100
(lp150
(S'CableCarMuseum'
g101
g102
tp151
a(S'FishermansWharf'
S'1.9km'
p152
S'5min'
p153
tp154
a(S'Pier39'
S'2.4km'
p155
S'5min'
p156
tp157
a(S'GhirardelliSquare'
S'1.7km'
p158
S'4min'
p159
tp160
a(S'Alcatraz'
g43
g44
tp161
a(S'GoldenGateBridge'
S'13.1km'
p162
S'17min'
p163
tp164
a(S'Chinatown'
S'0.8km'
p165
S'2min'
p166
tp167
a(S'CastroTheatre'
g144
g145
tp168
a(S'CityHall'
S'4.1km'
p169
S'7min'
p170
tp171
a(S'SFMOMA'
S'1.6km'
p172
S'4min'
p173
tp174
a(S'GoldenGatePark'
S'10.9km'
p175
S'20min'
p176
tp177
a(S'UnionSquare'
S'1.5km'
p178
S'4min'
p179
tp180
a(S'CoitTower'
S'2.3km'
p181
S'6min'
p182
tp183
a(S'SutroTower'
S'9.3km'
p184
S'20min'
p185
tp186
a(S'USF'
S'5.9km'
p187
S'13min'
p188
tp189
asg104
(lp190
(S'CableCarMuseum'
g105
g106
tp191
a(S'FishermansWharf'
S'6.8km'
p192
S'15min'
p193
tp194
a(S'Pier39'
S'7.1km'
p195
S'13min'
p196
tp197
a(S'GhirardelliSquare'
S'6.2km'
p198
S'14min'
p199
tp200
a(S'Alcatraz'
g46
g47
tp201
a(S'GoldenGateBridge'
S'11.5km'
p202
S'15min'
p203
tp204
a(S'Chinatown'
S'5.8km'
p205
S'13min'
p206
tp207
a(S'CastroTheatre'
g147
g148
tp208
a(S'CityHall'
S'3.7km'
p209
S'8min'
p210
tp211
a(S'SFMOMA'
S'5.3km'
p212
S'13min'
p213
tp214
a(S'GoldenGatePark'
S'4.0km'
p215
S'8min'
p216
tp217
a(S'UnionSquare'
S'4.9km'
p218
S'12min'
p219
tp220
a(S'CoitTower'
S'7.9km'
p221
S'16min'
p222
tp223
a(S'SutroTower'
S'3.7km'
p224
S'9min'
p225
tp226
a(S'TransamericaPyramid'
g187
g188
tp227
asg88
(lp228
(S'CableCarMuseum'
g89
g90
tp229
a(S'FishermansWharf'
S'2.4km'
p230
S'8min'
p231
tp232
a(S'Pier39'
S'2.6km'
p233
S'9min'
p234
tp235
a(S'GhirardelliSquare'
S'2.3km'
p236
S'6min'
p237
tp238
a(S'Alcatraz'
g34
g35
tp239
a(S'GoldenGateBridge'
S'13.4km'
p240
S'18min'
p241
tp242
a(S'Chinatown'
S'1.2km'
p243
S'3min'
p244
tp245
a(S'CastroTheatre'
g135
g136
tp246
a(S'CityHall'
S'2.4km'
p247
S'6min'
p248
tp249
a(S'SFMOMA'
S'0.95km'
p250
S'3min'
p251
tp252
a(S'GoldenGatePark'
S'9.2km'
p253
S'18min'
p254
tp255
a(S'CoitTower'
S'2.6km'
p256
S'6min'
p257
tp258
a(S'SutroTower'
S'7.0km'
p259
S'17min'
p260
tp261
a(S'TransamericaPyramid'
g178
g179
tp262
a(S'USF'
g218
g219
tp263
asg68
(lp264
(S'CableCarMuseum'
g69
g70
tp265
a(S'FishermansWharf'
S'1.7km'
p266
S'4min'
p267
tp268
a(S'Pier39'
S'2.1km'
p269
S'6min'
p270
tp271
a(S'GhirardelliSquare'
S'1.6km'
p272
S'3min'
p273
tp274
a(S'Alcatraz'
g19
g20
tp275
a(S'GoldenGateBridge'
S'12.9km'
p276
S'16min'
p277
tp278
a(S'CastroTheatre'
g123
g124
tp279
a(S'CityHall'
S'2.5km'
p280
S'8min'
p281
tp282
a(S'SFMOMA'
S'2.2km'
p283
S'7min'
p284
tp285
a(S'GoldenGatePark'
S'9.6km'
p286
S'20min'
p287
tp288
a(S'UnionSquare'
g243
g244
tp289
a(S'CoitTower'
S'1.5km'
p290
S'4min'
p291
tp292
a(S'SutroTower'
S'8.0km'
p293
S'19min'
p294
tp295
a(S'TransamericaPyramid'
g165
g166
tp296
a(S'USF'
g205
g206
tp297
asg51
(lp298
(g49
g52
g53
tp299
a(S'Pier39'
S'0.6km'
p300
S'1min'
p301
tp302
a(S'GhirardelliSquare'
S'0.75km'
p303
S'1min'
p304
tp305
a(S'Alcatraz'
g7
g8
tp306
a(S'GoldenGateBridge'
S'8.0km'
p307
S'11min'
p308
tp309
a(S'Chinatown'
g266
g267
tp310
a(S'CastroTheatre'
g110
g111
tp311
a(S'CityHall'
S'4.1km'
p312
S'10min'
p313
tp314
a(S'SFMOMA'
S'3.8km'
p315
S'8min'
p316
tp317
a(S'GoldenGatePark'
S'12.7km'
p318
S'19min'
p319
tp320
a(S'UnionSquare'
g230
g231
tp321
a(S'CoitTower'
S'1.2km'
p322
S'3min'
p323
tp324
a(S'SutroTower'
S'8.9km'
p325
S'20min'
p326
tp327
a(S'TransamericaPyramid'
g152
g153
tp328
a(S'USF'
g192
g193
tp329
asg55
(lp330
(S'CableCarMuseum'
g56
g57
tp331
a(S'FishermansWharf'
g300
g301
tp332
a(S'GhirardelliSquare'
S'1.1km'
p333
S'3min'
p334
tp335
a(S'Alcatraz'
g10
g11
tp336
a(S'GoldenGateBridge'
S'8.4km'
p337
S'12min'
p338
tp339
a(S'Chinatown'
g269
g270
tp340
a(S'CastroTheatre'
g113
g114
tp341
a(S'CityHall'
S'4.5km'
p342
S'11min'
p343
tp344
a(S'SFMOMA'
S'3.7km'
p345
S'8min'
p346
tp347
a(S'GoldenGatePark'
S'13.1km'
p348
S'19min'
p349
tp350
a(S'UnionSquare'
g233
g234
tp351
a(S'CoitTower'
S'1.4km'
p352
S'4min'
p353
tp354
a(S'SutroTower'
S'9.3km'
p355
S'21min'
p356
tp357
a(S'TransamericaPyramid'
g155
g156
tp358
a(S'USF'
g195
g196
tp359
asg92
(lp360
(S'CableCarMuseum'
g93
g94
tp361
a(S'FishermansWharf'
g322
g323
tp362
a(S'Pier39'
g352
g353
tp363
a(S'GhirardelliSquare'
S'1.5km'
p364
S'3min'
p365
tp366
a(S'Alcatraz'
g37
g38
tp367
a(S'GoldenGateBridge'
S'13.0km'
p368
S'18min'
p369
tp370
a(S'Chinatown'
g290
g291
tp371
a(S'CastroTheatre'
g138
g139
tp372
a(S'CityHall'
S'4.8km'
p373
S'10min'
p374
tp375
a(S'SFMOMA'
S'2.7km'
p376
S'7min'
p377
tp378
a(S'GoldenGatePark'
S'11.6km'
p379
S'23min'
p380
tp381
a(S'UnionSquare'
g256
g257
tp382
a(S'SutroTower'
S'9.2km'
p383
S'22min'
p384
tp385
a(S'TransamericaPyramid'
g181
g182
tp386
a(S'USF'
g221
g222
tp387
asg84
(lp388
(S'CableCarMuseum'
g85
g86
tp389
a(S'FishermansWharf'
g318
g319
tp390
a(S'Pier39'
g348
g349
tp391
a(S'GhirardelliSquare'
S'12.1km'
p392
S'18min'
p393
tp394
a(S'Alcatraz'
g31
g32
tp395
a(S'GoldenGateBridge'
S'11.4km'
p396
S'13min'
p397
tp398
a(S'Chinatown'
g286
g287
tp399
a(S'CastroTheatre'
g132
g133
tp400
a(S'CityHall'
S'6.8km'
p401
S'15min'
p402
tp403
a(S'SFMOMA'
S'9.4km'
p404
S'20min'
p405
tp406
a(S'UnionSquare'
g253
g254
tp407
a(S'CoitTower'
g379
g380
tp408
a(S'SutroTower'
S'5.3km'
p409
S'12min'
p410
tp411
a(S'TransamericaPyramid'
g175
g176
tp412
a(S'USF'
g215
g216
tp413
asg64
(lp414
(S'CableCarMuseum'
g65
g66
tp415
a(S'FishermansWharf'
g307
g308
tp416
a(S'Pier39'
g337
g338
tp417
a(S'GhirardelliSquare'
S'7.4km'
p418
S'10min'
p419
tp420
a(S'Alcatraz'
g16
g17
tp421
a(S'Chinatown'
g276
g277
tp422
a(S'CastroTheatre'
g120
g121
tp423
a(S'CityHall'
S'13.3km'
p424
S'17min'
p425
tp426
a(S'SFMOMA'
S'14.5km'
p427
S'21min'
p428
tp429
a(S'GoldenGatePark'
g396
g397
tp430
a(S'UnionSquare'
g240
g241
tp431
a(S'CoitTower'
g368
g369
tp432
a(S'SutroTower'
S'14.5km'
p433
S'21min'
p434
tp435
a(S'TransamericaPyramid'
g162
g163
tp436
a(S'USF'
g202
g203
tp437
asg76
(lp438
(S'CableCarMuseum'
g77
g78
tp439
a(S'FishermansWharf'
g312
g313
tp440
a(S'Pier39'
g342
g343
tp441
a(S'GhirardelliSquare'
S'3.6km'
p442
S'9min'
p443
tp444
a(S'Alcatraz'
g25
g26
tp445
a(S'GoldenGateBridge'
g424
g425
tp446
a(S'Chinatown'
g280
g281
tp447
a(S'CastroTheatre'
g126
g127
tp448
a(S'SFMOMA'
S'2.8km'
p449
S'7min'
p450
tp451
a(S'GoldenGatePark'
g401
g402
tp452
a(S'UnionSquare'
g247
g248
tp453
a(S'CoitTower'
g373
g374
tp454
a(S'SutroTower'
S'4.8km'
p455
S'12min'
p456
tp457
a(S'TransamericaPyramid'
g169
g170
tp458
a(S'USF'
g209
g210
tp459
asg80
(lp460
(S'CableCarMuseum'
g81
g82
tp461
a(S'FishermansWharf'
g315
g316
tp462
a(S'Pier39'
g345
g346
tp463
a(S'GhirardelliSquare'
S'3.1km'
p464
S'8min'
p465
tp466
a(S'Alcatraz'
g28
g29
tp467
a(S'GoldenGateBridge'
g427
g428
tp468
a(S'Chinatown'
g283
g284
tp469
a(S'CastroTheatre'
g129
g130
tp470
a(S'CityHall'
g449
g450
tp471
a(S'GoldenGatePark'
g404
g405
tp472
a(S'UnionSquare'
g250
g251
tp473
a(S'CoitTower'
g376
g377
tp474
a(S'SutroTower'
S'6.6km'
p475
S'16min'
p476
tp477
a(S'TransamericaPyramid'
g172
g173
tp478
a(S'USF'
g212
g213
tp479
asg96
(lp480
(S'CableCarMuseum'
g97
g98
tp481
a(S'FishermansWharf'
g325
g326
tp482
a(S'Pier39'
g355
g356
tp483
a(S'GhirardelliSquare'
S'8.5km'
p484
S'19min'
p485
tp486
a(S'Alcatraz'
g40
g41
tp487
a(S'GoldenGateBridge'
g433
g434
tp488
a(S'Chinatown'
g293
g294
tp489
a(S'CastroTheatre'
g141
g142
tp490
a(S'CityHall'
g455
g456
tp491
a(S'SFMOMA'
g475
g476
tp492
a(S'GoldenGatePark'
g409
g410
tp493
a(S'UnionSquare'
g259
g260
tp494
a(S'CoitTower'
g383
g384
tp495
a(S'TransamericaPyramid'
g184
g185
tp496
a(S'USF'
g224
g225
tp497
asg59
(lp498
(S'CableCarMuseum'
g60
g61
tp499
a(S'FishermansWharf'
g303
g304
tp500
a(S'Pier39'
g333
g334
tp501
a(S'Alcatraz'
g13
g14
tp502
a(S'GoldenGateBridge'
g418
g419
tp503
a(S'Chinatown'
g272
g273
tp504
a(S'CastroTheatre'
g116
g117
tp505
a(S'CityHall'
g442
g443
tp506
a(S'SFMOMA'
g464
g465
tp507
a(S'GoldenGatePark'
g392
g393
tp508
a(S'UnionSquare'
g236
g237
tp509
a(S'CoitTower'
g364
g365
tp510
a(S'SutroTower'
g484
g485
tp511
a(S'TransamericaPyramid'
g158
g159
tp512
a(S'USF'
g198
g199
tp513
as.(dp1
S'Alcatraz'
p2
(I0
(lp3
g2
atp4
sS'CableCarMuseum'
p5
(F2.8999999999999999
(lp6
g2
ag5
atp7
sS'CastroTheatre'
p8
(F6.2000000000000002
(lp9
g2
ag8
atp10
sS'USF'
p11
(F6.2999999999999998
(lp12
g2
ag11
atp13
sS'UnionSquare'
p14
(F3.8499999999999996
(lp15
g2
ag5
ag14
atp16
sS'Chinatown'
p17
(F3.1000000000000001
(lp18
g2
ag17
atp19
sS'FishermansWharf'
p20
(F2
(lp21
g2
ag20
atp22
sS'Pier39'
p23
(F2.3999999999999999
(lp24
g2
ag23
atp25
sS'CoitTower'
p26
(F3
(lp27
g2
ag26
atp28
sS'GoldenGatePark'
p29
(F10.300000000000001
(lp30
g2
ag11
ag29
atp31
sS'TransamericaPyramid'
p32
(F3.2000000000000002
(lp33
g2
ag32
atp34
sS'CityHall'
p35
(F3.8999999999999999
(lp36
g2
ag35
atp37
sS'GoldenGateBridge'
p38
(F7.5
(lp39
g2
ag38
atp40
sS'SFMOMA'
p41
(F4.5999999999999996
(lp42
g2
ag41
atp43
sS'SutroTower'
p44
(F8.4000000000000004
(lp45
g2
ag44
atp46
sS'GhirardelliSquare'
p47
(F1.6000000000000001
(lp48
g2
ag47
atp49
s.