(lp1
(S'comp.os.ms-windows.misc'
p2
(dp3
S'limited'
p4
F0.028170657833270874
sS'all'
p5
F0.046935396319494865
sS'code'
p6
F0.025425265962561394
sS'lach'
p7
F0.025606875005151117
sS'forbidden'
p8
F0.035494678224961947
sS'results'
p9
F0.076577622919086333
sS'four'
p10
F0.027630551552794525
sS'manager'
p11
F0.066624838931049757
sS'signatures'
p12
F0.012712632981280697
sS'deadline'
p13
F0.012712632981280697
sS'disk'
p14
F0.061222796069711587
sS'aliases'
p15
F0.056904166678113592
sS'ver'
p16
F0.025606875005151117
sS'icons'
p17
F0.11380833335622718
sS'april'
p18
F0.012712632981280697
sS'4602428'
p19
F0.029146036591228917
sS'bjorndahl'
p20
F0.056904166678113592
sS'to'
p21
F0.012712632981280697
sS'program'
p22
F0.058736373412776863
sS'swap'
p23
F0.024554537676172303
sS'under'
p24
F0.038636093058862599
sS'alberta'
p25
F0.11380833335622718
sS'suite'
p26
F0.014514018221543143
sS'maryland'
p27
F0.038137898943842091
sS'include'
p28
F0.012712632981280697
sS'presentation'
p29
F0.050850531925122788
sS'resources'
p30
F0.073663613028516914
sS'division'
p31
F0.053419452887537994
sS'fax'
p32
F0.041413089708868575
sS'organizations'
p33
F0.012712632981280697
sS'very'
p34
F0.061654135338345864
sS'os2'
p35
F0.10159812755080201
sS'cantaloupesrvcscmuedudasnewsharvardeduogicseuwmeduux1csouiucedunewscsouiuceduuxacsouiucedurhc52134'
p36
F0.047170559220015215
sS'1pp6l2p1oquadwfunetwfuedu'
p37
F0.035494678224961947
sS'oneday'
p38
F0.012712632981280697
sS'203345'
p39
F0.012712632981280697
sS'steve'
p40
F0.025606875005151117
sS'composmswindowsmisc8514'
p41
F0.012712632981280697
sS'composmswindowsprogrammermisc8259'
p42
F0.014514018221543143
sS'level'
p43
F0.035494678224961947
sS'srg3sirgrvgracecrinz'
p44
F0.058292073182457833
sS'gui'
p45
F0.035494678224961947
sS'upload'
p46
F0.025606875005151117
sS'try'
p47
F0.054525737420474264
sS'reptile4colhpcom'
p48
F0.025606875005151117
sS'path'
p49
F0
sS'cantaloupesrvcscmuedudasnewsharvardeduogicseuwmeduwupostuunetbrunixengin1ksl'
p50
F0.037736447376012172
sS'14'
p51
F0.012712632981280697
sS'composmswindowsprogrammerwin324874'
p52
F0.014514018221543143
sS'andor'
p53
F0.012712632981280697
sS'messageid'
p54
F0
sS'170mb'
p55
F0.061222796069711587
sS'maintain'
p56
F0.025606875005151117
sS'cost'
p57
F0.033545457553459189
sS'video'
p58
F0.027630551552794525
sS'further'
p59
F0.012712632981280697
sS'port'
p60
F0.025606875005151117
sS'quite'
p61
F0.014514018221543143
sS'even'
p62
F0.060762076283409433
sS'what'
p63
F0.044244507024326606
sS'1pq37s9dqsevenupeastsuncom'
p64
F0.025606875005151117
sS'richard'
p65
F0.11099700470688917
sS'040254'
p66
F0.037736447376012172
sS'giving'
p67
F0.025606875005151117
sS'sun'
p68
F0.025606875005151117
sS'25mb'
p69
F0.024554537676172303
sS'current'
p70
F0.027630551552794525
sS'rmaystongracecrinz'
p71
F0.029146036591228917
sS'version'
p72
F0.088483808780861539
sS'usenet'
p73
F0.061518146348715691
sS'currently'
p74
F0.025606875005151117
sS'above'
p75
F0.012712632981280697
sS'sixth'
p76
F0.025425265962561394
sS'new'
p77
F0.048403019744483161
sS'net'
p78
F0.047170559220015215
sS'options'
p79
F0.014514018221543143
sS'1ppmvfqnhbigbootewpiedu'
p80
F0.024554537676172303
sS'lee'
p81
F0.075472894752024344
sS'exchange'
p82
F0.012712632981280697
sS'2419760'
p83
F0.014514018221543143
sS'never'
p84
F0.024554537676172303
sS'455000'
p85
F0.029146036591228917
sS'446'
p86
F0.032008593756438893
sS'here'
p87
F0.014514018221543143
sS'modular'
p88
F0.070989356449923893
sS'operating'
p89
F0.035494678224961947
sS'lipoceandtnavymil'
p90
F0.012712632981280697
sS'berkeley'
p91
F0.066624838931049757
sS'consideration'
p92
F0.025606875005151117
sS'standard'
p93
F0.029028036443086287
sS'box'
p94
F0.032008593756438893
sS'jorgeerexeastsuncom'
p95
F0.025606875005151117
sS'voice'
p96
F0.012712632981280697
sS'2042'
p97
F0.025425265962561394
sS'sender'
p98
F0.064541330866566257
sS'ahead'
p99
F0.058292073182457833
sS'disclaimers'
p100
F0.014514018221543143
sS'augustana'
p101
F0.11380833335622718
sS'30'
p102
F0.053743512596359407
sS'cantaloupesrvcscmueducrabapplesrvcscmuedufs7ececmuedueuropaenggtefsdcomhowlandrestonansnetuscsddhpcomdecwrlnetcomsvnetcomcomxtifr'
p103
F0.014514018221543143
sS'amount'
p104
F0.024554537676172303
sS'swyattbachudeledu'
p105
F0.029146036591228917
sS'defeat'
p106
F0.025606875005151117
sS'20mb'
p107
F0.024554537676172303
sS'makes'
p108
F0.014514018221543143
sS'usenetnewscsouiucedu'
p109
F0.047170559220015215
sS'habra'
p110
F0.032008593756438893
sS'love'
p111
F0.035494678224961947
sS'addresses'
p112
F0.025425265962561394
sS'apr'
p113
F0
sS'win'
p114
F0.014514018221543143
sS'manage'
p115
F0.024554537676172303
sS'unix'
p116
F0.11611214577234515
sS'downsheliosnevadaedu'
p117
F0.024554537676172303
sS'should'
p118
F0.014514018221543143
sS'volz'
p119
F0.064017187512877785
sS'use'
p120
F0.086597821467262387
sS'850'
p121
F0.032008593756438893
sS'working'
p122
F0.035494678224961947
sS'give'
p123
F0.024554537676172303
sS'petroleum'
p124
F0.032008593756438893
sS'400700'
p125
F0.029028036443086287
sS'multiauthor'
p126
F0.012712632981280697
sS'os'
p127
F0.014514018221543143
sS'call'
p128
F0.025425265962561394
sS'wondering'
p129
F0.061222796069711587
sS'6'
F0.049398985941330437
sS'type'
p130
F0.012712632981280697
sS'more'
p131
F0.035494678224961947
sS'flaw'
p132
F0.056904166678113592
sS'090952'
p133
F0.056904166678113592
sS'comparison'
p134
F0.03148139051600763
sS'company'
p135
F0.032008593756438893
sS'devotes'
p136
F0.024554537676172303
sS'benchmark'
p137
F0.025606875005151117
sS'site'
p138
F0.025606875005151117
sS'phone'
p139
F0.032008593756438893
sS'recompiling'
p140
F0.014514018221543143
sS'newsgroups'
p141
F0
sS'1pqp3rinng85hpcolcolhpcom'
p142
F0.025606875005151117
sS'93'
p143
F0.029537008582110405
sS'xtifrnetcomcom'
p144
F0.029028036443086287
sS'me'
p145
F0.024554537676172303
sS'md'
p146
F0.012712632981280697
sS'1993'
p147
F0.05272612291976999
sS'organization'
p148
F0
sS'followupto'
p149
F0.012712632981280697
sS'this'
p150
F0.025606875005151117
sS'work'
p151
F0.028798502606592832
sS'newslhdsy1lahabrachevroncom'
p152
F0.032008593756438893
sS'80060016'
p153
F0.029146036591228917
sS'scivizvr'
p154
F0.012712632981280697
sS'nine'
p155
F0.025606875005151117
sS'can'
p156
F0.032008593756438893
sS'install'
p157
F0.061222796069711587
sS'learn'
p158
F0.035494678224961947
sS'following'
p159
F0.014514018221543143
sS'judys'
p160
F0.014514018221543143
sS'address'
p161
F0.012712632981280697
sS'1pr6rmt7fagateberkeleyedu'
p162
F0.035494678224961947
sS'control'
p163
F0.056904166678113592
sS'want'
p164
F0.014514018221543143
sS'brown'
p165
F0.037736447376012172
sS'tjyuevekaistackr'
p166
F0.056904166678113592
sS'heard'
p167
F0.014514018221543143
sS'numbers'
p168
F0.012712632981280697
sS'purchased'
p169
F0.032008593756438893
sS'heliosdowns189734061833'
p170
F0.024554537676172303
sS'composos2programmer12000'
p171
F0.014514018221543143
sS'information'
p172
F0.025425265962561394
sS'byoh'
p173
F0.012712632981280697
sS'demoing'
p174
F0.014514018221543143
sS'shieks'
p175
F0.012712632981280697
sS'1'
F0.025425265962561394
sS'far'
p176
F0.014514018221543143
sS'compwindowsxi386unix1209'
p177
F0.014514018221543143
sS'instead'
p178
F0.035494678224961947
sS'product'
p179
F0.060762076283409433
sS'vlb'
p180
F0.025606875005151117
sS'attend'
p181
F0.012712632981280697
sS'may'
p182
F0.012712632981280697
sS'waters'
p183
F0.029028036443086287
sS'composmsdospcgeos3200'
p184
F0.014514018221543143
sS'3'
F0.012712632981280697
sS'1668274'
p185
F0.029146036591228917
sS'wrong'
p186
F0.035494678224961947
sS'date'
p187
F0
sS'such'
p188
F0.024554537676172303
sS'types'
p189
F0.012712632981280697
sS'a'
F0.064743794192219983
sS'short'
p190
F0.012712632981280697
sS'downsnevadaedu'
p191
F0.024554537676172303
sS'author'
p192
F0.012712632981280697
sS'explicit'
p193
F0.056904166678113592
sS'ones'
p194
F0.043298910733631193
sS'so'
p195
F0.014514018221543143
sS'every'
p196
F0.024554537676172303
sS'174527'
p197
F0.032008593756438893
sS'go32'
p198
F0.014514018221543143
sS'help'
p199
F0.029146036591228917
sS'doswindows'
p200
F0.014514018221543143
sS'installed'
p201
F0.024554537676172303
sS'cantaloupesrvcscmuedudasnewsharvardeduogicseemorywupostuunetnevadaeducatlvlibnevadaedudowns'
p202
F0.024554537676172303
sS'looks'
p203
F0.061222796069711587
sS'1993apr50609297806seasgwuedu'
p204
F0.061222796069711587
sS'still'
p205
F0.061004133341310343
sS'june'
p206
F0.025425265962561394
sS'its'
p207
F0.064111173132965174
sS'ugcsdalca'
p208
F0.060762076283409433
sS'25'
p209
F0.058292073182457833
sS'xtifrc51mrb6n4netcomcom'
p210
F0.014514018221543143
sS'20'
p211
F0.065225563909774437
sS'thank'
p212
F0.060762076283409433
sS'22'
p213
F0.078406600674102947
sS'la'
p214
F0.032008593756438893
sS'personal'
p215
F0.014514018221543143
sS'6947063'
p216
F0.032008593756438893
sS'actually'
p217
F0.014514018221543143
sS'better'
p218
F0.024554537676172303
sS'permanent'
p219
F0.024554537676172303
sS'403'
p220
F0.056904166678113592
sS'systems'
p221
F0.043542054664629432
sS'composmswindowsmisccomposmswindowsapps'
p222
F0.025606875005151117
sS'maystonrgracecrinz'
p223
F0.029146036591228917
sS'stephen'
p224
F0.067808174545677571
sS'desqviewx'
p225
F0.014514018221543143
sS'winbench'
p226
F0.15536795518271757
sS'408'
p227
F0.014514018221543143
sS'1993apr60402548443csbrownedu'
p228
F0.037736447376012172
sS'cee'
p229
F0.014514018221543143
sS'lipman'
p230
F0.063563164906403485
sS'greater'
p231
F0.029146036591228917
sS'c51h9m46pnewscsouiucedu'
p232
F0.088432927656250077
sS'neff123garnetberkeleyedu'
p233
F0.066624838931049757
sS'similar'
p234
F0.029028036443086287
sS'downs'
p235
F0.049109075352344607
sS'free1000s'
p236
F0.014514018221543143
sS'not'
p237
F0.054128912023648862
sS'alcolhpcom'
p238
F0.051213750010302234
sS'nop'
p239
F0.058056072886172573
sS'complain'
p240
F0.056904166678113592
sS'developments'
p241
F0.012712632981280697
sS'james'
p242
F0.032008593756438893
sS'university'
p243
F0.098153400786746184
sS'drop'
p244
F0.035494678224961947
sS'l'
F0.029146036591228917
sS'doesnt'
p245
F0.014514018221543143
sS'articleid'
p246
F0.063450388709691857
sS'mode'
p247
F0.029146036591228917
sS'each'
p248
F0.014514018221543143
sS'found'
p249
F0.061222796069711587
sS'viewgraphs'
p250
F0.012712632981280697
sS'xls'
p251
F0.051213750010302234
sS'directly'
p252
F0.014514018221543143
sS'there'
p253
F0.029028036443086287
sS'hard'
p254
F0.061222796069711587
sS'idea'
p255
F0.032008593756438893
sS'group'
p256
F0.012712632981280697
sS'mar'
p257
F0.012712632981280697
sS'060938'
p258
F0.056904166678113592
sS'sponsor'
p259
F0.012712632981280697
sS'forgot'
p260
F0.035494678224961947
sS'navy'
p261
F0.063563164906403485
sS'composmswindowsmisc9140'
p262
F0.025606875005151117
sS'24x'
p263
F0.058292073182457833
sS'mdt'
p264
F0.056904166678113592
sS'out'
p265
F0.061448735114921126
sS'canada'
p266
F0.084844074546134254
sS'ftp'
p267
F0.025606875005151117
sS'040000'
p268
F0.012712632981280697
sS'demonstration'
p269
F0.012712632981280697
sS'twice'
p270
F0.024554537676172303
sS'videotape'
p271
F0.025425265962561394
sS'geos'
p272
F0.043542054664629432
sS'urbana'
p273
F0.047170559220015215
sS'research'
p274
F0.048301702621889445
sS'looking'
p275
F0.060762076283409433
sS're'
p276
F0.026416713800933706
sS'7635278'
p277
F0.029146036591228917
sS'7'
F0.036059123351543765
sS'internet'
p278
F0.012712632981280697
sS'utility'
p279
F0.037736447376012172
sS'math'
p280
F0.060762076283409433
sS'million'
p281
F0.087438109773686754
sS'33mhz'
p282
F0.029146036591228917
sS'differ'
p283
F0.025606875005151117
sS'free'
p284
F0.029028036443086287
sS'hollandugcsdalca'
p285
F0.1822862288502283
sS'labs'
p286
F0.029146036591228917
sS'244'
p287
F0.029146036591228917
sS'bjorndahlaugustanaabca'
p288
F0.11380833335622718
sS'california'
p289
F0.066624838931049757
sS'besides'
p290
F0.056904166678113592
sS'nntppostinghost'
p291
F0.064845412026561952
sS'put'
p292
F0.025606875005151117
sS'toolkit'
p293
F0.014514018221543143
sS'solicited'
p294
F0.012712632981280697
sS'card'
p295
F0.054903205480869154
sS'advance'
p296
F0.056904166678113592
sS'ms'
p297
F0.12244559213942317
sS'g'
F0.056904166678113592
sS'applications'
p298
F0.012712632981280697
sS'gibson'
p299
F0.025606875005151117
sS'area'
p300
F0.024554537676172303
sS'david'
p301
F0.025425265962561394
sS'thing'
p302
F0.038055958730515149
sS'length'
p303
F0.025425265962561394
sS'ltd'
p304
F0.029146036591228917
sS'isa'
p305
F0.025606875005151117
sS'shareware'
p306
F0.024554537676172303
sS'think'
p307
F0.068892598859583237
sS'purpose'
p308
F0.012712632981280697
sS'industrial'
p309
F0.029146036591228917
sS'dont'
p310
F0.078710566602192028
sS'composmsdosmisc11971'
p311
F0.012712632981280697
sS'widely'
p312
F0.012712632981280697
sS'apps'
p313
F0.014514018221543143
sS'coding'
p314
F0.025606875005151117
sS'number'
p315
F0.025606875005151117
sS'one'
p316
F0.10520645825934835
sS'novell'
p317
F0.014514018221543143
sS'021523'
p318
F0.025606875005151117
sS'submit'
p319
F0.012712632981280697
sS'chevron'
p320
F0.064017187512877785
sS'frequently'
p321
F0.024554537676172303
sS'owner'
p322
F0.047170559220015215
sS'phishnet'
p323
F0.012712632981280697
sS'sounds'
p324
F0.032008593756438893
sS'170'
p325
F0.029146036591228917
sS'city'
p326
F0.032008593756438893
sS'little'
p327
F0.058736373412776863
sS'guest'
p328
F0.014514018221543143
sS'elbo'
p329
F0.061222796069711587
sS'system'
p330
F0.093660900247839768
sS'anyone'
p331
F0.032008593756438893
sS'desqview'
p332
F0.014514018221543143
sS'2'
F0.019631968916092278
sS'too'
p333
F0.014514018221543143
sS'norton'
p334
F0.1725563909774436
sS'really'
p335
F0.058123592727850296
sS'gives'
p336
F0.038636093058862599
sS'defragment'
p337
F0.061222796069711587
sS'that'
p338
F0.035494678224961947
sS'lamont'
p339
F0.049109075352344607
sS'compunixdosunderunix428'
p340
F0.014514018221543143
sS'released'
p341
F0.025606875005151117
sS'authors'
p342
F0.025425265962561394
sS'inventing'
p343
F0.014514018221543143
sS'believe'
p344
F0.025606875005151117
sS'2273618'
p345
F0.025425265962561394
sS'1668985'
p346
F0.029146036591228917
sS'composmswindowsmisc'
p347
F0.028863936381945104
sS'10'
p348
F0.050197684495598263
sS'12'
p349
F0.047170559220015215
sS'15'
p350
F0.060762076283409433
sS'holland'
p351
F0.12152415256681887
sS'17'
p352
F0.037736447376012172
sS'16'
p353
F0.029146036591228917
sS'19'
p354
F0.046320490865144594
sS'18'
p355
F0.041544040190161433
sS'bother'
p356
F0.037736447376012172
sS'reproduction'
p357
F0.012712632981280697
sS'5mb'
p358
F0.024554537676172303
sS'cards'
p359
F0.051213750010302234
sS'steep'
p360
F0.032008593756438893
sS'and'
p361
F0.030097404141684003
sS'lines'
p362
F0
sS'pro'
p363
F0.060762076283409433
sS'ram'
p364
F0.038721177898095052
sS'38633'
p365
F0.029146036591228917
sS'need'
p366
F0.049575872172756524
sS'seen'
p367
F0.054278358966628262
sS'seem'
p368
F0.032008593756438893
sS'obviously'
p369
F0.029146036591228917
sS'apparently'
p370
F0.056904166678113592
sS'seminar'
p371
F0.076275797887684182
sS'xref'
p372
F0.029475078859177405
sS'replyto'
p373
F0.012712632981280697
sS'upgrading'
p374
F0.029146036591228917
sS'vga'
p375
F0.029146036591228917
sS'contact'
p376
F0.025425265962561394
sS'note'
p377
F0.014514018221543143
sS'also'
p378
F0.024554537676172303
sS'sh'
p379
F0.032008593756438893
sS'unixware'
p380
F0.029028036443086287
sS'online'
p381
F0.014514018221543143
sS'1pqd9hinnbmizephyrgracecrinz'
p382
F0.029146036591228917
sS'subject'
p383
F0
sS'camrose'
p384
F0.11380833335622718
sS'programmers'
p385
F0.025606875005151117
sS'price'
p386
F0.03148139051600763
sS'expires'
p387
F0.012712632981280697
sS'jorge'
p388
F0.025606875005151117
sS'babak'
p389
F0.014514018221543143
sS'regular'
p390
F0.012712632981280697
sS'70'
p391
F0.014514018221543143
sS'services'
p392
F0.014514018221543143
sS'model'
p393
F0.012712632981280697
sS'icon'
p394
F0.043298910733631193
sS'zealand'
p395
F0.029146036591228917
sS'windows'
p396
F0.12062903654042194
sS'later'
p397
F0.061222796069711587
sS'ext'
p398
F0.014514018221543143
sS'tech'
p399
F0.056904166678113592
sS'sehariiastateedu'
p400
F0.014514018221543143
sS'dos'
p401
F0.043542054664629432
sS'microsoft'
p402
F0.083294043690083294
sS'came'
p403
F0.014514018221543143
sS'rating'
p404
F0.025606875005151117
sS'rtf'
p405
F0.11380833335622718
sS'composmswindowsadvocacy6560'
p406
F0.014514018221543143
sS'015345'
p407
F0.047170559220015215
sS'sent'
p408
F0.012712632981280697
sS'composmswindowsmisccomposmsdosmisccomposos2misc'
p409
F0.012712632981280697
sS'factsnet'
p410
F0.012712632981280697
sS'bedroom'
p411
F0.014514018221543143
sS'hwrvokatolahabrachevroncom'
p412
F0.032008593756438893
sS'earth'
p413
F0.032008593756438893
sS'ripoff'
p414
F0.032008593756438893
sS'pubpcwin3miscwinadvzip'
p415
F0.025606875005151117
sS'winmark'
p416
F0.029146036591228917
sS'upgrade'
p417
F0.064017187512877785
sS'proposed'
p418
F0.012712632981280697
sS'composmsdospcgeoscomposos2programmercomposos2advocacycomposmswindowsmisccomposmswindowsprogrammermisccomposmswindowsprogrammerwin32composmswindowsadvocacycompwindowsxi386unixcompunixwizardscompunixdosunderunixcompunixpcclone16bitcompunixpcclone32bit'
p419
F0.014514018221543143
sS'situations'
p420
F0.014514018221543143
sS'writes'
p421
F0.060912828284586808
sS'woo'
p422
F0.032008593756438893
sS'sehari734022369vincent2iastateedu'
p423
F0.029028036443086287
sS'affiliations'
p424
F0.012712632981280697
sS'nswc'
p425
F0.012712632981280697
sS'035223'
p426
F0.014514018221543143
sS'8'
F0.029146036591228917
sS'folder'
p427
F0.035494678224961947
sS'stockingslonglegs'
p428
F0.012712632981280697
sS'hope'
p429
F0.035494678224961947
sS'dalhousie'
p430
F0.060762076283409433
sS'beat'
p431
F0.025606875005151117
sS'fluid'
p432
F0.037736447376012172
sS'120'
p433
F0.029028036443086287
sS'b'
F0.058292073182457833
sS'fastest'
p434
F0.061222796069711587
sS'warfare'
p435
F0.025425265962561394
sS'runs'
p436
F0.024554537676172303
sS'resource'
p437
F0.049109075352344607
sS'usenetcsdalca'
p438
F0.060762076283409433
sS'downs189734061833heliosnevadaedu'
p439
F0.024554537676172303
sS'1993apr50909529843augustanaabca'
p440
F0.056904166678113592
sS'where'
p441
F0.056904166678113592
sS'emx'
p442
F0.058056072886172573
sS'insane'
p443
F0.014514018221543143
sS'btw'
p444
F0.014514018221543143
sS'autoexecbat'
p445
F0.035494678224961947
sS'311'
p446
F0.078959946305419748
sS'310'
p447
F0.064017187512877785
sS'edition'
p448
F0.014514018221543143
sS'see'
p449
F0.024554537676172303
sS'theres'
p450
F0.024554537676172303
sS'college'
p451
F0.11380833335622718
sS'are'
p452
F0.024554537676172303
sS'best'
p453
F0.029028036443086287
sS'wonder'
p454
F0.032008593756438893
sS'modelinterpretation'
p455
F0.032008593756438893
sS'stats'
p456
F0.060762076283409433
sS'sehari'
p457
F0.014514018221543143
sS'joys'
p458
F0.035494678224961947
sS'nature'
p459
F0.035494678224961947
sS'please'
p460
F0.012712632981280697
sS'avaliable'
p461
F0.014514018221543143
sS'materials'
p462
F0.025425265962561394
sS'enough'
p463
F0.056904166678113592
sS'various'
p464
F0.014514018221543143
sS'between'
p465
F0.025606875005151117
sS'neither'
p466
F0.014514018221543143
sS'email'
p467
F0.012712632981280697
sS'available'
p468
F0.03421435488798355
sS'reproduced'
p469
F0.012712632981280697
sS'adding'
p470
F0.035494678224961947
sS'confusion'
p471
F0.056904166678113592
sS'sold'
p472
F0.035494678224961947
sS'ignorance'
p473
F0.035494678224961947
sS'unlv'
p474
F0.024554537676172303
sS'hogging'
p475
F0.024554537676172303
sS'1993apr21001547845euaericssonse'
p476
F0.056904166678113592
sS'wr'
p477
F0.032008593756438893
sS'1993mar301134367339worakkaistackr'
p478
F0.11380833335622718
sS'ebuwooebuericssonse'
p479
F0.032008593756438893
sS'article'
p480
F0.068879275618045591
sS'sheeps'
p481
F0.012712632981280697
sS'come'
p482
F0.037736447376012172
sS'tue'
p483
F0.014514018221543143
sS'newsc51h9m46p'
p484
F0.047170559220015215
sS'both'
p485
F0.055465587044534408
sS'last'
p486
F0.025606875005151117
sS'xtree'
p487
F0.12152415256681887
sS'many'
p488
F0.053541827874920879
sS'presentations'
p489
F0.076275797887684182
sS'agree'
p490
F0.014514018221543143
sS'infoworld'
p491
F0.025606875005151117
sS's'
F0.061222796069711587
sS'unices'
p492
F0.014514018221543143
sS'present'
p493
F0.012712632981280697
sS'comes'
p494
F0.024554537676172303
sS'co'
p495
F0.032008593756438893
sS'point'
p496
F0.019631968916092278
sS'ca'
p497
F0.032008593756438893
sS'others'
p498
F0.014514018221543143
sS'66'
p499
F0.012712632981280697
sS'news'
p500
F0.061518146348715691
sS'cs'
p501
F0.060762076283409433
sS'springs'
p502
F0.025606875005151117
sS'256'
p503
F0.029146036591228917
sS'worksinprogress'
p504
F0.012712632981280697
sS'compunixpcclone16bit83'
p505
F0.014514018221543143
sS'frosts'
p506
F0.024554537676172303
sS'agate1pr6r2t7c'
p507
F0.056904166678113592
sS'060958'
p508
F0.035494678224961947
sS'acceptance'
p509
F0.012712632981280697
sS'yap'
p510
F0.043542054664629432
sS'pc'
p511
F0.041946825741599358
sS'much'
p512
F0.08502214860097361
sS'basic'
p513
F0.056904166678113592
sS'basin'
p514
F0.012712632981280697
sS'po'
p515
F0.032008593756438893
sS'225337'
p516
F0.029146036591228917
sS'received'
p517
F0.012712632981280697
sS'with'
p518
F0.014514018221543143
sS'netcom'
p519
F0.014514018221543143
sS'finished'
p520
F0.024554537676172303
sS'understand'
p521
F0.032008593756438893
sS'diskcache'
p522
F0.024554537676172303
sS'graphics'
p523
F0.044244507024326606
sS'200845000'
p524
F0.025425265962561394
sS'those'
p525
F0.056904166678113592
sS'naval'
p526
F0.025425265962561394
sS'case'
p527
F0.014514018221543143
sS'10813lhdsy1lahabrachevroncom'
p528
F0.032008593756438893
sS'handling'
p529
F0.032008593756438893
sS'look'
p530
F0.014514018221543143
sS'cantaloupesrvcscmuedudasnewsharvardeduogicseuwmeduwuposthowlandrestonansnetagategarnetberkeleyeduneff123'
p531
F0.066624838931049757
sS'structures'
p532
F0.012712632981280697
sS'bill'
p533
F0.032008593756438893
sS'engineering'
p534
F0.012712632981280697
sS'wyatt'
p535
F0.029146036591228917
sS'while'
p536
F0.024554537676172303
sS'cardstreet'
p537
F0.029146036591228917
sS'designate'
p538
F0.012712632981280697
sS'31'
p539
F0.098218150704689214
sS'filemanagerprogman'
p540
F0.056904166678113592
sS'ive'
p541
F0.055465587044534408
sS'bos'
p542
F0.025606875005151117
sS'is'
p543
F0.09827334374735841
sS'it'
p544
F0.078389418502419789
sS'surface'
p545
F0.025425265962561394
sS'composmswindowsapps10916'
p546
F0.025606875005151117
sS'hardware'
p547
F0.025606875005151117
sS'mayston'
p548
F0.029146036591228917
sS'good'
p549
F0.052412260967191079
sS'im'
p550
F0.035494678224961947
sS'in'
p551
F0.054649424530682555
sS'technology'
p552
F0.032008593756438893
sS'if'
p553
F0.088053852248959563
sS'different'
p554
F0.025606875005151117
sS'abstracts'
p555
F0.012712632981280697
sS'etc'
p556
F0.024554537676172303
sS'things'
p557
F0.035494678224961947
sS'make'
p558
F0.025606875005151117
sS'problems'
p559
F0.024554537676172303
sS'submission'
p560
F0.012712632981280697
sS'same'
p561
F0.028929453087885696
sS'check'
p562
F0.014514018221543143
sS'split'
p563
F0.056904166678113592
sS'bethesda'
p564
F0.050850531925122788
sS'2030'
p565
F0.012712632981280697
sS'9'
F0.056904166678113592
sS'document'
p566
F0.11380833335622718
sS'sterling'
p567
F0.056904166678113592
sS'oil'
p568
F0.032008593756438893
sS'kiseok'
p569
F0.075472894752024344
sS'published'
p570
F0.012712632981280697
sS'driver'
p571
F0.081511883733541679
sS'ness'
p572
F0.012712632981280697
sS'evil'
p573
F0.035494678224961947
sS'kit'
p574
F0.024554537676172303
sS'cheers'
p575
F0.014514018221543143
sS'running'
p576
F0.038636093058862599
sS'fruit'
p577
F0.035494678224961947
sS'uses'
p578
F0.024554537676172303
sS'two'
p579
F0.014514018221543143
sS'2275753'
p580
F0.025425265962561394
sS'kslengin1'
p581
F0.037736447376012172
sS'center'
p582
F0.054709732658040147
sS'programs'
p583
F0.04508232669425509
sS'i'
F0.096440467932772583
sS'newsnevadaedu'
p584
F0.024554537676172303
sS'youre'
p585
F0.036169240469973121
sS'well'
p586
F0.036059123351543765
sS'anybody'
p587
F0.059495168667391685
sS'analysis'
p588
F0.032008593756438893
sS'maurackacdalca'
p589
F0.060762076283409433
sS'costs'
p590
F0.029028036443086287
sS'telephone'
p591
F0.012712632981280697
sS'comparisons'
p592
F0.025606875005151117
sS'the'
p593
F0.053122304355039722
sS'latest'
p594
F0.051213750010302234
sS'just'
p595
F0.035494678224961947
sS'less'
p596
F0.024554537676172303
sS'gripe'
p597
F0.024554537676172303
sS'distribute'
p598
F0.012712632981280697
sS'020353'
p599
F0.024554537676172303
sS'c51o22lj9csdalca'
p600
F0.060762076283409433
sS'thanks'
p601
F0.050197684495598263
sS'using'
p602
F0.024554537676172303
sS'gdi'
p603
F0.024554537676172303
sS'yes'
p604
F0.088432927656250077
sS'reality'
p605
F0.063563164906403485
sS'yet'
p606
F0.066892946068904002
sS'visualization'
p607
F0.063563164906403485
sS'accepted'
p608
F0.012712632981280697
sS'sometimes'
p609
F0.024554537676172303
sS'thinking'
p610
F0.064828879031452444
sS'yu'
p611
F0.056904166678113592
sS'defrag'
p612
F0.12244559213942317
sS'386dx'
p613
F0.029146036591228917
sS'desktop'
p614
F0.064017187512877785
sS'source'
p615
F0.025606875005151117
sS'add'
p616
F0.014514018221543143
sS'internal'
p617
F0.024554537676172303
sS'4'
F0.012712632981280697
sS'has'
p618
F0.032008593756438893
sS'tuesday'
p619
F0.012712632981280697
sS'cantaloupesrvcscmuedurochestercornelluwbeavercsubccaunixgubccakakwaucsualbertacaalbertacamrosebjorndahl'
p620
F0.056904166678113592
sS'gmt'
p621
F0.013632525195319784
sS'aspects'
p622
F0.012712632981280697
sS'format'
p623
F0.051213750010302234
sS'read'
p624
F0.029146036591228917
sS'couple'
p625
F0.032008593756438893
sS'voicenet'
p626
F0.012712632981280697
sS'possible'
p627
F0.027630551552794525
sS'ope'
p628
F0.056904166678113592
sS'know'
p629
F0.068414626309363152
sS'world'
p630
F0.039479973152709874
sS'cantaloupesrvcscmueducrabapplesrvcscmuedufs7ececmuedueuropaenggtefsdcomhowlandrestonansnetusccsutexasedusunbarroliveauunetnewsflashconcordiacanstnnscacsdalcaugcsdalcaholland'
p631
F0.060762076283409433
sS'svga'
p632
F0.029146036591228917
sS'dos6'
p633
F0.061222796069711587
sS'd'
F0.014514018221543143
sS'167m'
p634
F0.058292073182457833
sS'58'
p635
F0.014514018221543143
sS'composos2misc54352'
p636
F0.012712632981280697
sS'disks'
p637
F0.032008593756438893
sS'theyre'
p638
F0.024554537676172303
sS'4mb'
p639
F0.038721177898095052
sS'compunixpcclone32bit2505'
p640
F0.014514018221543143
sS'kearney'
p641
F0.066624838931049757
sS'page'
p642
F0.012712632981280697
sS'6949340'
p643
F0.032008593756438893
sS'rhc52134uxacsouiucedu'
p644
F0.061222796069711587
sS'people'
p645
F0.056904166678113592
sS'windoze'
p646
F0.035494678224961947
sS'linux'
p647
F0.014514018221543143
sS'lastest'
p648
F0.025606875005151117
sS'back'
p649
F0.024554537676172303
sS'certain'
p650
F0.024554537676172303
sS'however'
p651
F0.012712632981280697
sS'garnetberkeleyedu'
p652
F0.066624838931049757
sS'cantaloupesrvcscmuedudasnewsharvardeduogicsenetworkucsdedusddhpcomcolhpcomal'
p653
F0.025606875005151117
sS'empire'
p654
F0.035494678224961947
sS'carderock'
p655
F0.038137898943842091
sS'taijung'
p656
F0.056904166678113592
sS'attendees'
p657
F0.012712632981280697
sS'for'
p658
F0.037965036297093385
sS'esp'
p659
F0.014514018221543143
sS'notification'
p660
F0.012712632981280697
sS'comments'
p661
F0.12152415256681887
sS'does'
p662
F0.056904166678113592
sS'defragger'
p663
F0.037736447376012172
sS'cantaloupesrvcscmueducrabapplesrvcscmuedufs7ececmuedueuropaenggtefsdcompaladinamericanedugatechpurduehavenumdeduuunetwupostwaikatoacnzcompvuwacnzzephyrgracecrinzzephyrgracecrinzusenet'
p664
F0.029146036591228917
sS'256color'
p665
F0.029146036591228917
sS'pee'
p666
F0.014514018221543143
sS'lipmanoasysdtnavymil'
p667
F0.050850531925122788
sS'noise'
p668
F0.047170559220015215
sS'run'
p669
F0.038636093058862599
sS'scientific'
p670
F0.063563164906403485
sS'300'
p671
F0.014514018221543143
sS'301'
p672
F0.050850531925122788
sS'bjorndahlcamroseuucp'
p673
F0.056904166678113592
sS'from'
p674
F0
sS'panel'
p675
F0.056904166678113592
sS'on'
p676
F0.039479973152709874
sS'pcgeos'
p677
F0.014514018221543143
sS'usa'
p678
F0.012712632981280697
sS'standalone'
p679
F0.019631968916092278
sS'1993apr218045115428exuericssonse'
p680
F0.064017187512877785
sS'shipping'
p681
F0.032008593756438893
sS'compatible'
p682
F0.014514018221543143
sS'carries'
p683
F0.025606875005151117
sS'extensions'
p684
F0.035494678224961947
sS'backup'
p685
F0.12244559213942317
sS'or'
p686
F0.012712632981280697
sS'ndw'
p687
F0.035494678224961947
sS'software'
p688
F0.012712632981280697
sS'knowladge'
p689
F0.014514018221543143
sS'colorado'
p690
F0.025606875005151117
sS'906330446'
p691
F0.032008593756438893
sS'communication'
p692
F0.014514018221543143
sS'1pr6r2t7cagateberkeleyedu'
p693
F0.056904166678113592
sS'stripdown'
p694
F0.061222796069711587
sS'references'
p695
F0.026416713800933706
sS'brush'
p696
F0.024554537676172303
sS'computational'
p697
F0.012712632981280697
sS'xwindow'
p698
F0.025606875005151117
sS'6791100'
p699
F0.056904166678113592
sS'c4zogdc56newsudeledu'
p700
F0.058292073182457833
sS'networking'
p701
F0.035494678224961947
sS'geoffrey'
p702
F0.061222796069711587
sS'support'
p703
F0.056904166678113592
sS'512k'
p704
F0.029146036591228917
sS'question'
p705
F0.029146036591228917
sS'deadlines'
p706
F0.012712632981280697
sS'vendors'
p707
F0.033545457553459189
sS'mks'
p708
F0.043542054664629432
sS'way'
p709
F0.041544040190161433
sS'writeup'
p710
F0.025606875005151117
sS'files'
p711
F0.056904166678113592
sS'offer'
p712
F0.032008593756438893
sS'shane'
p713
F0.12152415256681887
sS'byrne'
p714
F0.014514018221543143
sS'hp'
p715
F0.025606875005151117
sS'memory'
p716
F0.073663613028516914
sS'navyrelated'
p717
F0.025425265962561394
sS'devilbiss'
p718
F0.051213750010302234
sS'hi'
p719
F0.032008593756438893
sS'042024'
p720
F0.060762076283409433
sS'line'
p721
F0.035494678224961947
sS'speedisk'
p722
F0.12244559213942317
sS'buying'
p723
F0.060762076283409433
sS'32872oasysdtnavymil'
p724
F0.012712632981280697
sS'versions'
p725
F0.051213750010302234
sS'up'
p726
F0.024554537676172303
sS'considered'
p727
F0.012712632981280697
sS'below'
p728
F0.035494678224961947
sS'benchmarks'
p729
F0.025606875005151117
sS'distribution'
p730
F0.037638075468900585
sS'minutes'
p731
F0.061552818215752148
sS'cs1993apr60402548443'
p732
F0.037736447376012172
sS'mechanics'
p733
F0.037736447376012172
sS'taylor'
p734
F0.025425265962561394
sS'kslengin1nosubdomainnodomain'
p735
F0.037736447376012172
sS'cdnswc'
p736
F0.012712632981280697
sS'ah'
p737
F0.035494678224961947
sS'abstract'
p738
F0.012712632981280697
sS'al'
p739
F0.051213750010302234
sS'66515'
p740
F0.032008593756438893
sS'composmswindowsmisc9143'
p741
F0.014514018221543143
sS'as'
p742
F0.025425265962561394
sS'diamond'
p743
F0.029146036591228917
sS'file'
p744
F0.085048622279057656
sS'watched'
p745
F0.061222796069711587
sS'halifax'
p746
F0.060762076283409433
sS'fill'
p747
F0.024554537676172303
sS'hpcol1pqp3rinng85'
p748
F0.025606875005151117
sS'1ppl275f0umd5umdedu'
p749
F0.061222796069711587
sS'composos2advocacy17179'
p750
F0.014514018221543143
sS'unixx11'
p751
F0.029028036443086287
sS'excel'
p752
F0.025606875005151117
sS'proceedings'
p753
F0.012712632981280697
sS'virtual'
p754
F0.063563164906403485
sS'illinois'
p755
F0.047170559220015215
sS'field'
p756
F0.032008593756438893
sS'other'
p757
F0.014514018221543143
sS'5'
F0.05861231205062109
sS'agate1pr6rmt7f'
p758
F0.035494678224961947
sS'sick'
p759
F0.025425265962561394
sS'papers'
p760
F0.012712632981280697
sS'you'
p761
F0.054278358966628262
sS'ns'
p762
F0.060762076283409433
sS'abstact'
p763
F0.012712632981280697
sS'monitors'
p764
F0.024554537676172303
sS'640480256'
p765
F0.029146036591228917
sS'utilities'
p766
F0.014514018221543143
sS'chance'
p767
F0.032008593756438893
sS'scale'
p768
F0.025606875005151117
sS'winmarks'
p769
F0.058292073182457833
sS'serious'
p770
F0.025606875005151117
sS'chris'
p771
F0.029028036443086287
sS'weekend'
p772
F0.032008593756438893
sS'compunixwizards34613'
p773
F0.014514018221543143
sS'ftpcicaindianaedu'
p774
F0.025606875005151117
sS'calls'
p775
F0.014514018221543143
sS'catlvlibnevadaedu'
p776
F0.024554537676172303
sS'tricks'
p777
F0.025606875005151117
sS'formerly'
p778
F0.012712632981280697
sS'sponsoring'
p779
F0.012712632981280697
sS'2000'
p780
F0.032008593756438893
sS'cantaloupesrvcscmueducrabapplesrvcscmuedufs7ececmuedueuropaenggtefsdcomdarwinsuranetdtixdtnavymiloasyslipman'
p781
F0.012712632981280697
sS'v202'
p782
F0.029146036591228917
sS'v203'
p783
F0.087438109773686754
sS'cantaloupesrvcscmueducrabapplesrvcscmuedufs7ececmuedueuropaenggtefsdcomgatechswrindenetworkucsdeduuscwupostuunetlhdsy1katolahabrachevroncomhwrvo'
p784
F0.032008593756438893
sS'168'
p785
F0.029146036591228917
sS'requires'
p786
F0.014514018221543143
sS'robert'
p787
F0.063563164906403485
sS'cantaloupesrvcscmuedu'
p788
F0.029475078859177405
stp789
a(S'comp.graphics'
p790
(dp791
S'all'
p792
F0.0035211267605633804
sS'code'
p793
F0.0070422535211267607
sS'office'
p794
F0.011235955056179775
sS'distribute'
p795
F0.0035211267605633804
sS'four'
p796
F0.0035211267605633804
sS'computational'
p797
F0.0035211267605633804
sS'deadline'
p798
F0.0035211267605633804
sS'thanks'
p799
F0.0035211267605633804
sS'factsnet'
p800
F0.0035211267605633804
sS'messageid'
p801
F0
sS'exchange'
p802
F0.0035211267605633804
sS'before'
p803
F0.011235955056179775
sS'visualization'
p804
F0.017605633802816902
sS'submit'
p805
F0.0035211267605633804
sS'group'
p806
F0.0035211267605633804
sS'proposed'
p807
F0.0035211267605633804
sS'22'
p808
F0.0035211267605633804
sS'3'
F0.0035211267605633804
sS'affiliations'
p809
F0.0035211267605633804
sS'32850oasysdtnavymil'
p810
F0.0035211267605633804
sS'going'
p811
F0.011235955056179775
sS'4'
F0.0035211267605633804
sS'easy'
p812
F0.011235955056179775
sS'sponsoring'
p813
F0.0035211267605633804
sS'maryland'
p814
F0.010563380281690141
sS'include'
p815
F0.0035211267605633804
sS'presentation'
p816
F0.014084507042253521
sS'variables'
p817
F0.011235955056179775
sS'arrowheads'
p818
F0.011235955056179775
sS'designate'
p819
F0.0035211267605633804
sS'real'
p820
F0.011235955056179775
sS'division'
p821
F0.010563380281690141
sS'fax'
p822
F0.0070422535211267607
sS'lipman'
p823
F0.017605633802816902
sS'aspects'
p824
F0.0035211267605633804
sS'sick'
p825
F0.0070422535211267607
sS'10'
p826
F0.0035211267605633804
sS'internet'
p827
F0.0035211267605633804
sS'possible'
p828
F0.0035211267605633804
sS'gmt'
p829
F0
sS'2'
F0
sS'accepted'
p830
F0.0035211267605633804
sS'oneday'
p831
F0.0035211267605633804
sS'developments'
p832
F0.0035211267605633804
sS'14'
p833
F0.0035211267605633804
sS'followupto'
p834
F0.0035211267605633804
sS'md'
p835
F0.0035211267605633804
sS'submission'
p836
F0.0035211267605633804
sS'arrows'
p837
F0.011235955056179775
sS'cantaloupesrvcscmueducrabapplesrvcscmuedufs7ececmuedueuropaenggtefsdcomemorywupostuscnewshubsdsueduucssun1sdsuedusdsueduweston'
p838
F0.011235955056179775
sS'sdsu'
p839
F0.011235955056179775
sS'arrays'
p840
F0.011235955056179775
sS'articleid'
p841
F0.0035211267605633804
sS't'
F0.011235955056179775
sS'further'
p842
F0
sS'viewgraphs'
p843
F0.0035211267605633804
sS'page'
p844
F0.0035211267605633804
sS'signatures'
p845
F0.0035211267605633804
sS'andor'
p846
F0.0035211267605633804
sS'doing'
p847
F0.011235955056179775
sS'compgraphics'
p848
F0
sS'1993'
p849
F0
sS'19'
p850
F0.0035211267605633804
sS'mar'
p851
F0.0035211267605633804
sS'video'
p852
F0.0035211267605633804
sS'considered'
p853
F0.0035211267605633804
sS'navy'
p854
F0.017605633802816902
sS'home'
p855
F0.011235955056179775
sS'reproduced'
p856
F0.0035211267605633804
sS'carderock'
p857
F0.010563380281690141
sS'040000'
p858
F0.0035211267605633804
sS'attendees'
p859
F0.0035211267605633804
sS'for'
p860
F0.010563380281690141
sS'videotape'
p861
F0.0070422535211267607
sS'notification'
p862
F0.0035211267605633804
sS'robert'
p863
F0.017605633802816902
sS'thanx'
p864
F0.011235955056179775
sS'please'
p865
F0.0035211267605633804
sS'cantaloupesrvcscmuedudasnewsharvardeduogicseuwmeduzaphodmpsohiostateedudarwinsuranetdtixdtnavymiloasyslipman'
p866
F0.0035211267605633804
sS'research'
p867
F0.0070422535211267607
sS'current'
p868
F0.0035211267605633804
sS'state'
p869
F0.011235955056179775
sS'usenet'
p870
F0.011235955056179775
sS'papers'
p871
F0.0035211267605633804
sS'above'
p872
F0.0035211267605633804
sS'sixth'
p873
F0.0070422535211267607
sS'compgraphics37261'
p874
F0.0035211267605633804
sS'plotting'
p875
F0.011235955056179775
sS'lipmanoasysdtnavymil'
p876
F0.014084507042253521
sS'available'
p877
F0.0035211267605633804
sS'model'
p878
F0.0035211267605633804
sS'expires'
p879
F0.0035211267605633804
sS'scientific'
p880
F0.017605633802816902
sS'whose'
p881
F0.011235955056179775
sS'301'
p882
F0.014084507042253521
sS'shieks'
p883
F0.0035211267605633804
sS'however'
p884
F0.0035211267605633804
sS'oasys32850'
p885
F0.0035211267605633804
sS'ucssun1sdsuedu'
p886
F0.011235955056179775
sS'lipoceandtnavymil'
p887
F0.0035211267605633804
sS'nntppostinghost'
p888
F0.011235955056179775
sS'ask'
p889
F0.011235955056179775
sS'path'
p890
F0
sS'sheeps'
p891
F0.0035211267605633804
sS'distribution'
p892
F0.0035211267605633804
sS'advance'
p893
F0.011235955056179775
sS'2042'
p894
F0.0070422535211267607
sS'naval'
p895
F0.0070422535211267607
sS'standalone'
p896
F0.0035211267605633804
sS'minutes'
p897
F0.0070422535211267607
sS'30'
p898
F0.0070422535211267607
sS'presentations'
p899
F0.021126760563380281
sS'david'
p900
F0.0070422535211267607
sS'etc'
p901
F0.011235955056179775
sS'length'
p902
F0.0070422535211267607
sS'published'
p903
F0.0035211267605633804
sS'or'
p904
F0.0035211267605633804
sS'5946218'
p905
F0.011235955056179775
sS'software'
p906
F0.0035211267605633804
sS'compgraphicsaltgraphicscompgraphicsanimation'
p907
F0.0035211267605633804
sS'5757477'
p908
F0.011235955056179775
sS'already'
p909
F0.011235955056179775
sS'addresses'
p910
F0.0070422535211267607
sS'formerly'
p911
F0.0035211267605633804
sS'point'
p912
F0.0035211267605633804
sS'apr'
p913
F0
sS'ca'
p914
F0.011235955056179775
sS'address'
p915
F0.0035211267605633804
sS'one'
p916
F0.0070422535211267607
sS'2275753'
p917
F0.0070422535211267607
sS'done'
p918
F0.011235955056179775
sS'65'
p919
F0.0035211267605633804
sS'type'
p920
F0.0035211267605633804
sS'phishnet'
p921
F0.0035211267605633804
sS'tuesday'
p922
F0.0035211267605633804
sS'univ'
p923
F0.011235955056179775
sS'worksinprogress'
p924
F0.0035211267605633804
sS'plot'
p925
F0.02247191011235955
sS'widely'
p926
F0.0035211267605633804
sS'from'
p927
F0
sS'usa'
p928
F0.0035211267605633804
sS'to'
p929
F0.0035211267605633804
sS'acceptance'
p930
F0.0035211267605633804
sS'system'
p931
F0.0035211267605633804
sS'deadlines'
p932
F0.0035211267605633804
sS'nswc'
p933
F0.0035211267605633804
sS'call'
p934
F0.0070422535211267607
sS'types'
p935
F0.0035211267605633804
sS'tom'
p936
F0.011235955056179775
sS'basin'
p937
F0.0035211267605633804
sS'vectorvalued'
p938
F0.011235955056179775
sS'compgraphicsanimation2614'
p939
F0.0035211267605633804
sS'graphical'
p940
F0.011235955056179775
sS'complete'
p941
F0.011235955056179775
sS'received'
p942
F0.0035211267605633804
sS'navyrelated'
p943
F0.0070422535211267607
sS'2vectors'
p944
F0.011235955056179775
sS'authors'
p945
F0.0070422535211267607
sS'93'
p946
F0.0070422535211267607
sS'200845000'
p947
F0.0070422535211267607
sS'present'
p948
F0.0035211267605633804
sS'921820303'
p949
F0.011235955056179775
sS'13'
p950
F0.011235955056179775
sS'valued'
p951
F0.011235955056179775
sS'warfare'
p952
F0.0070422535211267607
sS'structures'
p953
F0.0035211267605633804
sS'whether'
p954
F0.011235955056179775
sS'abstracts'
p955
F0.0035211267605633804
sS'pointers'
p956
F0.011235955056179775
sS'work'
p957
F0
sS'as'
p958
F0.0070422535211267607
sS'stockingslonglegs'
p959
F0.0035211267605633804
sS'information'
p960
F0.0070422535211267607
sS'scivizvr'
p961
F0.0035211267605633804
sS'values'
p962
F0.011235955056179775
sS'sent'
p963
F0.0035211267605633804
sS'reproduction'
p964
F0.0035211267605633804
sS'byoh'
p965
F0.0035211267605633804
sS'voice'
p966
F0.0035211267605633804
sS'2273618'
p967
F0.0070422535211267607
sS'email'
p968
F0.0035211267605633804
sS'sponsor'
p969
F0.0035211267605633804
sS'and'
p970
F0.0035211267605633804
sS'taylor'
p971
F0.0070422535211267607
sS'san'
p972
F0.02247191011235955
sS'computing'
p973
F0.011235955056179775
sS'cdnswc'
p974
F0.0035211267605633804
sS'abstract'
p975
F0.0035211267605633804
sS'telephone'
p976
F0.0035211267605633804
sS'surface'
p977
F0.0070422535211267607
sS'weston'
p978
F0.02247191011235955
sS'202228'
p979
F0.011235955056179775
sS'someone'
p980
F0.011235955056179775
sS'numbers'
p981
F0.0035211267605633804
sS'want'
p982
F0.011235955056179775
sS'altgraphics519'
p983
F0.0035211267605633804
sS'need'
p984
F0.0035211267605633804
sS'demonstration'
p985
F0.0035211267605633804
sS'any'
p986
F0.011235955056179775
sS'seminar'
p987
F0.021126760563380281
sS'diego'
p988
F0.02247191011235955
sS'functions'
p989
F0.033707865168539325
sS'xref'
p990
F0.0035211267605633804
sS'date'
p991
F0
sS'gnuplot'
p992
F0.011235955056179775
sS'april'
p993
F0.0035211267605633804
sS'replyto'
p994
F0.0035211267605633804
sS'make'
p995
F0.011235955056179775
sS'virtual'
p996
F0.017605633802816902
sS'reality'
p997
F0.017605633802816902
sS'1'
F0.0070422535211267607
sS'materials'
p998
F0.0070422535211267607
sS'5'
F0.011235955056179775
sS'bethesda'
p999
F0.014084507042253521
sS'2030'
p1000
F0.0035211267605633804
sS'department'
p1001
F0.011235955056179775
sS'organization'
p1002
F0
sS'subject'
p1003
F0
sS'abstact'
p1004
F0.0035211267605633804
sS'organizations'
p1005
F0.0035211267605633804
sS'newsgroups'
p1006
F0
sS'619'
p1007
F0.02247191011235955
sS'attend'
p1008
F0.0035211267605633804
sS'westonucssun1sdsuedu'
p1009
F0.02247191011235955
sS'may'
p1010
F0.0035211267605633804
sS'philosophy'
p1011
F0.011235955056179775
sS'june'
p1012
F0.0070422535211267607
sS'ness'
p1013
F0.0035211267605633804
sS'solicited'
p1014
F0.0035211267605633804
sS'applications'
p1015
F0.0035211267605633804
sS'regular'
p1016
F0.0035211267605633804
sS'purpose'
p1017
F0.0035211267605633804
sS'multiauthor'
p1018
F0.0035211267605633804
sS'services'
p1019
F0.011235955056179775
sS'1pq4e4afcpandorasdsuedu'
p1020
F0.011235955056179775
sS'engineering'
p1021
F0.0035211267605633804
sS'short'
p1022
F0.0035211267605633804
sS'center'
p1023
F0.010563380281690141
sS'programs'
p1024
F0.0035211267605633804
sS'i'
F0.0449438202247191
sS'author'
p1025
F0.0035211267605633804
sS'lines'
p1026
F0
sS'thought'
p1027
F0.011235955056179775
sS'voicenet'
p1028
F0.0035211267605633804
sS'proceedings'
p1029
F0.0035211267605633804
sS'contact'
p1030
F0.0070422535211267607
sS'201023'
p1031
F0.0035211267605633804
sS'representation'
p1032
F0.011235955056179775
sS'the'
p1033
F0.010563380281690141
sS'cantaloupesrvcscmuedu'
p1034
F0.0035211267605633804
stp1035
a(S'alt.atheism'
p1036
(dp1037
S'gw'
p1038
F0.00078492935635792783
sS'descartes'
p1039
F0.00078492935635792783
sS'consider'
p1040
F0.00066225165562913907
sS'similarity'
p1041
F0.00078492935635792783
sS'depends'
p1042
F0.00066225165562913907
sS'beware'
p1043
F0.00066225165562913907
sS'lack'
p1044
F0.0013245033112582781
sS'thomas'
p1045
F0.00078492935635792783
sS'alien'
p1046
F0.00078492935635792783
sS'bucherdienst'
p1047
F0.00078492935635792783
sS'writings'
p1048
F0.00078492935635792783
sS'per'
p1049
F0.00078492935635792783
sS'90'
p1050
F0.00033112582781456954
sS'talks'
p1051
F0.0013245033112582781
sS'follow'
p1052
F0.00066225165562913907
sS'bank'
p1053
F0.00078492935635792783
sS'children'
p1054
F0.00066225165562913907
sS'luxuries'
p1055
F0.00078492935635792783
sS'whose'
p1056
F0.00078492935635792783
sS'certainly'
p1057
F0.002317880794701987
sS'replacements'
p1058
F0.00078492935635792783
sS'peter'
p1059
F0.00078492935635792783
sS'rambling'
p1060
F0.00078492935635792783
sS'tx'
p1061
F0.0015698587127158557
sS'tv'
p1062
F0.00066225165562913907
sS'concerned'
p1063
F0.00066225165562913907
sS'young'
p1064
F0.00078492935635792783
sS'passage'
p1065
F0.00078492935635792783
sS'charge'
p1066
F0.00078492935635792783
sS'asking'
p1067
F0.00066225165562913907
sS'promoting'
p1068
F0.00078492935635792783
sS'under'
p1069
F0.00078492935635792783
sS'quarterly'
p1070
F0.00078492935635792783
sS'women'
p1071
F0.00078492935635792783
sS'resources'
p1072
F0.0031397174254317113
sS'hume'
p1073
F0.00078492935635792783
sS'fax'
p1074
F0.0015698587127158557
sS'diener'
p1075
F0.00078492935635792783
sS'mainstream'
p1076
F0.00078492935635792783
sS'md'
p1077
F0.00078492935635792783
sS'716'
p1078
F0.00078492935635792783
sS'implicitly'
p1079
F0.00078492935635792783
sS'oceans'
p1080
F0.00078492935635792783
sS'choice'
p1081
F0.00099337748344370861
sS'diary'
p1082
F0.00078492935635792783
sS'should'
p1083
F0.00066225165562913907
sS'decide'
p1084
F0.0016556291390728477
sS'konfessionslosesn'
p1085
F0.00078492935635792783
sS'canticle'
p1086
F0.00078492935635792783
sS'14215'
p1087
F0.00078492935635792783
sS'vast'
p1088
F0.00066225165562913907
sS'illustrated'
p1089
F0.00078492935635792783
sS'17th'
p1090
F0.00033112582781456954
sS'incoherent'
p1091
F0.0015698587127158557
sS'unexceptional'
p1092
F0.00066225165562913907
sS'hardcover'
p1093
F0.0015698587127158557
sS'uncovering'
p1094
F0.00078492935635792783
sS'die'
p1095
F0.00078492935635792783
sS'michael'
p1096
F0.00078492935635792783
sS'kierkegaard'
p1097
F0.00078492935635792783
sS'small'
p1098
F0.00078492935635792783
sS'originally'
p1099
F0.00066225165562913907
sS'20th'
p1100
F0.00078492935635792783
sS'paperback'
p1101
F0.00078492935635792783
sS'century'
p1102
F0.00078492935635792783
sS'andor'
p1103
F0.00078492935635792783
sS'core'
p1104
F0.0013245033112582781
sS'miller'
p1105
F0.00078492935635792783
sS'direct'
p1106
F0.00078492935635792783
sS'cameron'
p1107
F0.00078492935635792783
sS'272'
p1108
F0.00078492935635792783
sS'273'
p1109
F0.00078492935635792783
sS'writing'
p1110
F0.00078492935635792783
sS'pothealer'
p1111
F0.0015698587127158557
sS'restatements'
p1112
F0.00078492935635792783
sS'richard'
p1113
F0.00078492935635792783
sS'assisted'
p1114
F0.00078492935635792783
sS'theist'
p1115
F0.00066225165562913907
sS'expressed'
p1116
F0.00078492935635792783
sS'debate'
p1117
F0.00099337748344370861
sS'agnosticism'
p1118
F0.0013245033112582781
sS'adulteries'
p1119
F0.00078492935635792783
sS'goes'
p1120
F0.00078492935635792783
sS'scientists'
p1121
F0.0013245033112582781
sS'churches'
p1122
F0.00099337748344370861
sS'net'
p1123
F0.0015698587127158557
sS'3d'
p1124
F0.00078492935635792783
sS'scepticism'
p1125
F0.00066225165562913907
sS'hero'
p1126
F0.00078492935635792783
sS'doubt'
p1127
F0.00066225165562913907
sS'men'
p1128
F0.00078492935635792783
sS'supposedly'
p1129
F0.00078492935635792783
sS'konfessionslosen'
p1130
F0.0015698587127158557
sS'behaviour'
p1131
F0.0019867549668874172
sS'787140195'
p1132
F0.00078492935635792783
sS'questioning'
p1133
F0.00066225165562913907
sS'others'
p1134
F0.002317880794701987
sS'along'
p1135
F0.00099337748344370861
sS'strong'
p1136
F0.0033112582781456954
sS'backlash'
p1137
F0.00099337748344370861
sS'change'
p1138
F0.00066225165562913907
sS'box'
p1139
F0.0023547880690737832
sS'search'
p1140
F0.0013245033112582781
sS'substance'
p1141
F0.00078492935635792783
sS'provably'
p1142
F0.00066225165562913907
sS'oxford'
p1143
F0.0015698587127158557
sS'k'
F0.0015698587127158557
sS'allows'
p1144
F0.00033112582781456954
sS'experience'
p1145
F0.00066225165562913907
sS'adopt'
p1146
F0.00066225165562913907
sS'massmurderer'
p1147
F0.00066225165562913907
sS'arent'
p1148
F0.0016556291390728477
sS'646'
p1149
F0.00033112582781456954
sS'usually'
p1150
F0.0019867549668874172
sS'swinburne'
p1151
F0.0047095761381475663
sS'refutations'
p1152
F0.00078492935635792783
sS'mantiscouk'
p1153
F0.00078492935635792783
sS'430'
p1154
F0.0015698587127158557
sS'thats'
p1155
F0.00099337748344370861
sS'term'
p1156
F0.00066225165562913907
sS'addresses'
p1157
F0.0031397174254317113
sS'family'
p1158
F0.00099337748344370861
sS'danger'
p1159
F0.00066225165562913907
sS'suddenly'
p1160
F0.00066225165562913907
sS'merely'
p1161
F0.00066225165562913907
sS'explained'
p1162
F0.00066225165562913907
sS'summons'
p1163
F0.00078492935635792783
sS'paraphernalia'
p1164
F0.00078492935635792783
sS'contradictions'
p1165
F0.0015698587127158557
sS'amherst'
p1166
F0.00078492935635792783
sS'apply'
p1167
F0.00066225165562913907
sS'altatheism49960'
p1168
F0.00078492935635792783
sS'fernwright'
p1169
F0.00078492935635792783
sS'rationalist'
p1170
F0.00078492935635792783
sS'prove'
p1171
F0.0026490066225165563
sS'contains'
p1172
F0.0023547880690737832
sS'two'
p1173
F0.00066225165562913907
sS'france'
p1174
F0.00078492935635792783
sS'symbol'
p1175
F0.00078492935635792783
sS'few'
p1176
F0.00099337748344370861
sS'explicitly'
p1177
F0.00078492935635792783
sS'music'
p1178
F0.0023547880690737832
sS'therefore'
p1179
F0.0013245033112582781
sS'then'
p1180
F0.00066225165562913907
sS'rationalism'
p1181
F0.00078492935635792783
sS'believing'
p1182
F0.0019867549668874172
sS'themselves'
p1183
F0.0013245033112582781
sS'historically'
p1184
F0.00066225165562913907
sS'today'
p1185
F0.0013245033112582781
sS'terminally'
p1186
F0.00078492935635792783
sS'holy'
p1187
F0.0015698587127158557
sS'successful'
p1188
F0.00099337748344370861
sS'acceptable'
p1189
F0.00099337748344370861
sS'claus'
p1190
F0.00078492935635792783
sS'wear'
p1191
F0.00066225165562913907
sS'wi'
p1192
F0.00078492935635792783
sS'excuse'
p1193
F0.00066225165562913907
sS'034529887x'
p1194
F0.00078492935635792783
sS'appendix'
p1195
F0.0015698587127158557
sS'stick'
p1196
F0.00078492935635792783
sS'earthers'
p1197
F0.00078492935635792783
sS'ok'
p1198
F0.00066225165562913907
sS'hold'
p1199
F0.00099337748344370861
sS'effort'
p1200
F0.00066225165562913907
sS'moulded'
p1201
F0.00078492935635792783
sS'charity'
p1202
F0.00099337748344370861
sS'1991'
p1203
F0.00033112582781456954
sS'1990'
p1204
F0.00078492935635792783
sS'crimes'
p1205
F0.00078492935635792783
sS'indicates'
p1206
F0.00066225165562913907
sS'science'
p1207
F0.0016556291390728477
sS'der'
p1208
F0.0023547880690737832
sS'des'
p1209
F0.00078492935635792783
sS'posthumous'
p1210
F0.00078492935635792783
sS'believes'
p1211
F0.0013245033112582781
sS'anywhere'
p1212
F0.00066225165562913907
sS'obvious'
p1213
F0.00099337748344370861
sS'norm'
p1214
F0.0015698587127158557
sS'universe'
p1215
F0.0019867549668874172
sS'already'
p1216
F0.00033112582781456954
sS'freethinker'
p1217
F0.00078492935635792783
sS'address'
p1218
F0.00078492935635792783
sS'performed'
p1219
F0.00078492935635792783
sS'control'
p1220
F0.00066225165562913907
sS'challenging'
p1221
F0.00078492935635792783
sS'gnostic'
p1222
F0.00078492935635792783
sS'december'
p1223
F0.00078492935635792783
sS'purposes'
p1224
F0.00066225165562913907
sS'accept'
p1225
F0.00033112582781456954
sS'high'
p1226
F0.00078492935635792783
sS'contradicts'
p1227
F0.00078492935635792783
sS'assumptions'
p1228
F0.00099337748344370861
sS'something'
p1229
F0.0046357615894039739
sS'want'
p1230
F0.0013245033112582781
sS'sense'
p1231
F0.0019867549668874172
sS'pink'
p1232
F0.00078492935635792783
sS'united'
p1233
F0.00078492935635792783
sS'end'
p1234
F0.00099337748344370861
sS'bund'
p1235
F0.00078492935635792783
sS'worldview'
p1236
F0.0015698587127158557
sS'provide'
p1237
F0.00066225165562913907
sS'stickers'
p1238
F0.00078492935635792783
sS'discussion'
p1239
F0.00099337748344370861
sS'comfort'
p1240
F0.00099337748344370861
sS'magazine'
p1241
F0.00078492935635792783
sS'write'
p1242
F0.0047095761381475663
sS'how'
p1243
F0.00066225165562913907
sS'8372475'
p1244
F0.00078492935635792783
sS'possibly'
p1245
F0.00078492935635792783
sS'answer'
p1246
F0.0013245033112582781
sS'mysteries'
p1247
F0.00078492935635792783
sS'nonbelief'
p1248
F0.00078492935635792783
sS'gordon'
p1249
F0.00078492935635792783
sS'schools'
p1250
F0.00066225165562913907
sS'mar'
p1251
F0.00078492935635792783
sS'galactic'
p1252
F0.00078492935635792783
sS'description'
p1253
F0.00078492935635792783
sS'believers'
p1254
F0.002980132450331126
sS'1271'
p1255
F0.00078492935635792783
sS'0877227675'
p1256
F0.00078492935635792783
sS'derived'
p1257
F0.00078492935635792783
sS'outlawed'
p1258
F0.00078492935635792783
sS'santa'
p1259
F0.0015698587127158557
sS'wrong'
p1260
F0.00099337748344370861
sS'produce'
p1261
F0.00078492935635792783
sS'whilst'
p1262
F0.00066225165562913907
sS'787522973'
p1263
F0.00078492935635792783
sS'hrsg'
p1264
F0.00078492935635792783
sS'concentrating'
p1265
F0.00078492935635792783
sS'1881'
p1266
F0.00078492935635792783
sS'man'
p1267
F0.00078492935635792783
sS'hannover'
p1268
F0.00078492935635792783
sS'natural'
p1269
F0.00099337748344370861
sS'varieties'
p1270
F0.00066225165562913907
sS'beam'
p1271
F0.00078492935635792783
sS'stein'
p1272
F0.00078492935635792783
sS'tale'
p1273
F0.0015698587127158557
sS'tendentious'
p1274
F0.0015698587127158557
sS'fictitious'
p1275
F0.00078492935635792783
sS'so'
p1276
F0.0036423841059602651
sS'allow'
p1277
F0.00066225165562913907
sS'african'
p1278
F0.0023547880690737832
sS'quotations'
p1279
F0.0015698587127158557
sS'sf'
p1280
F0.00078492935635792783
sS'acts'
p1281
F0.0013245033112582781
sS'papal'
p1282
F0.00078492935635792783
sS'help'
p1283
F0.00078492935635792783
sS'noteworthy'
p1284
F0.00078492935635792783
sS'cathedral'
p1285
F0.00078492935635792783
sS'pointed'
p1286
F0.00066225165562913907
sS'competing'
p1287
F0.00066225165562913907
sS'mainly'
p1288
F0.00078492935635792783
sS'charities'
p1289
F0.0016556291390728477
sS'argues'
p1290
F0.00078492935635792783
sS'course'
p1291
F0.0043046357615894038
sS'isnt'
p1292
F0.0033112582781456954
sS'paper'
p1293
F0.0023547880690737832
sS'london'
p1294
F0.0031397174254317113
sS'4rl'
p1295
F0.00078492935635792783
sS'paperbacks'
p1296
F0.00078492935635792783
sS'495'
p1297
F0.0015698587127158557
sS'deity'
p1298
F0.0015698587127158557
sS'still'
p1299
F0.002317880794701987
sS'leibowitz'
p1300
F0.0015698587127158557
sS'worship'
p1301
F0.00099337748344370861
sS'tendency'
p1302
F0.0016556291390728477
sS'before'
p1303
F0.0016556291390728477
sS'1'
F0.00078492935635792783
sS'style'
p1304
F0.00078492935635792783
sS'22'
p1305
F0.00066225165562913907
sS'call'
p1306
F0.00066225165562913907
sS'pray'
p1307
F0.0013245033112582781
sS'interaction'
p1308
F0.00066225165562913907
sS'glenn'
p1309
F0.00078492935635792783
sS'29'
p1310
F0.0015698587127158557
sS'actually'
p1311
F0.00099337748344370861
sS'080182494x'
p1312
F0.00078492935635792783
sS'wasting'
p1313
F0.00066225165562913907
sS'absence'
p1314
F0.00033112582781456954
sS'edmund'
p1315
F0.00078492935635792783
sS'listing'
p1316
F0.00078492935635792783
sS'hidden'
p1317
F0.00078492935635792783
sS'defining'
p1318
F0.00078492935635792783
sS'told'
p1319
F0.00066225165562913907
sS'outside'
p1320
F0.00066225165562913907
sS'prime'
p1321
F0.00066225165562913907
sS'designs'
p1322
F0.0023547880690737832
sS'good'
p1323
F0.002317880794701987
sS'views'
p1324
F0.00078492935635792783
sS'subtitled'
p1325
F0.00078492935635792783
sS'pangborn'
p1326
F0.00078492935635792783
sS'nation'
p1327
F0.00078492935635792783
sS'newman'
p1328
F0.00078492935635792783
sS'9'
F0.00033112582781456954
sS'kung'
p1329
F0.00078492935635792783
sS'related'
p1330
F0.00078492935635792783
sS'0877226423'
p1331
F0.00078492935635792783
sS'not'
p1332
F0.0026490066225165563
sS'hunted'
p1333
F0.00078492935635792783
sS'day'
p1334
F0.00078492935635792783
sS'association'
p1335
F0.0015698587127158557
sS'articles'
p1336
F0.00078492935635792783
sS'blueprints'
p1337
F0.00078492935635792783
sS'7251'
p1338
F0.00078492935635792783
sS'pregnant'
p1339
F0.00078492935635792783
sS'james'
p1340
F0.0023547880690737832
sS'university'
p1341
F0.0023547880690737832
sS'covering'
p1342
F0.00078492935635792783
sS'l'
F0.00078492935635792783
sS'zeit'
p1343
F0.00078492935635792783
sS'filling'
p1344
F0.00078492935635792783
sS'technologybased'
p1345
F0.00078492935635792783
sS'each'
p1346
F0.00066225165562913907
sS'found'
p1347
F0.0016556291390728477
sS'entirely'
p1348
F0.00099337748344370861
sS'372'
p1349
F0.00078492935635792783
sS'traces'
p1350
F0.00078492935635792783
sS'characterized'
p1351
F0.00066225165562913907
sS'mean'
p1352
F0.0016556291390728477
sS'harm'
p1353
F0.00066225165562913907
sS'square'
p1354
F0.00078492935635792783
sS'directly'
p1355
F0.00078492935635792783
sS'series'
p1356
F0.00078492935635792783
sS'fish'
p1357
F0.0047095761381475663
sS'revised'
p1358
F0.0015698587127158557
sS'700'
p1359
F0.00078492935635792783
sS'monks'
p1360
F0.00078492935635792783
sS'702'
p1361
F0.00078492935635792783
sS'88'
p1362
F0.00078492935635792783
sS'hanged'
p1363
F0.00078492935635792783
sS'defences'
p1364
F0.00078492935635792783
sS'0801834074'
p1365
F0.00078492935635792783
sS'kant'
p1366
F0.00078492935635792783
sS'ev'
p1367
F0.0015698587127158557
sS'adequately'
p1368
F0.00033112582781456954
sS'after'
p1369
F0.00066225165562913907
sS'out'
p1370
F0.0026490066225165563
sS'living'
p1371
F0.00078492935635792783
sS'ultimately'
p1372
F0.00078492935635792783
sS'technology'
p1373
F0.00078492935635792783
sS'tried'
p1374
F0.00066225165562913907
sS'unsupportable'
p1375
F0.00078492935635792783
sS'publish'
p1376
F0.0031397174254317113
sS'may'
p1377
F0.00066225165562913907
sS'encourage'
p1378
F0.00066225165562913907
sS'7ltvtmvtu66nz6sbbpw9qkbjarbys2sz9nf5htdii0r6sseypl0r69bv9okeq'
p1379
F0.00033112582781456954
sS'rational'
p1380
F0.00078492935635792783
sS'memes'
p1381
F0.0016556291390728477
sS'cause'
p1382
F0.00066225165562913907
sS'red'
p1383
F0.00078492935635792783
sS'philosophy'
p1384
F0.00078492935635792783
sS'dictionary'
p1385
F0.00078492935635792783
sS'cars'
p1386
F0.00078492935635792783
sS'eternal'
p1387
F0.00099337748344370861
sS'little'
p1388
F0.00066225165562913907
sS'necessarily'
p1389
F0.00078492935635792783
sS'surely'
p1390
F0.002317880794701987
sS'york'
p1391
F0.0015698587127158557
sS'ask'
p1392
F0.00066225165562913907
sS'philip'
p1393
F0.0015698587127158557
sS'hand'
p1394
F0.00066225165562913907
sS'inductive'
p1395
F0.00078492935635792783
sS'card'
p1396
F0.00078492935635792783
sS'care'
p1397
F0.00099337748344370861
sS'definition'
p1398
F0.0013245033112582781
sS'handwaving'
p1399
F0.00078492935635792783
sS'created'
p1400
F0.00066225165562913907
sS'area'
p1401
F0.0015698587127158557
sS'messages'
p1402
F0.00066225165562913907
sS'catalog'
p1403
F0.00078492935635792783
sS'british'
p1404
F0.00078492935635792783
sS'times'
p1405
F0.0015698587127158557
sS'thing'
p1406
F0.002980132450331126
sS'american'
p1407
F0.0039246467817896386
sS'place'
p1408
F0.00078492935635792783
sS'290'
p1409
F0.00078492935635792783
sS'bumper'
p1410
F0.00078492935635792783
sS'hence'
p1411
F0.00066225165562913907
sS'wired'
p1412
F0.00078492935635792783
sS'512'
p1413
F0.0015698587127158557
sS'austin'
p1414
F0.0015698587127158557
sS'south'
p1415
F0.00078492935635792783
sS'first'
p1416
F0.00078492935635792783
sS'major'
p1417
F0.00066225165562913907
sS'dunkle'
p1418
F0.00078492935635792783
sS'isbn'
p1419
F0.0039246467817896386
sS'dont'
p1420
F0.0052980132450331126
sS'feel'
p1421
F0.002980132450331126
sS'encouraging'
p1422
F0.00066225165562913907
sS'jesus'
p1423
F0.0013245033112582781
sS'feet'
p1424
F0.00078492935635792783
sS'americans'
p1425
F0.0015698587127158557
sS'long'
p1426
F0.00066225165562913907
sS'pgp'
p1427
F0.0013245033112582781
sS'invasion'
p1428
F0.00078492935635792783
sS'carry'
p1429
F0.00066225165562913907
sS'impossible'
p1430
F0.002317880794701987
sS'plastic'
p1431
F0.00078492935635792783
sS'open'
p1432
F0.00066225165562913907
sS'george'
p1433
F0.00078492935635792783
sS'invades'
p1434
F0.00078492935635792783
sS'purely'
p1435
F0.00066225165562913907
sS'story'
p1436
F0.0015698587127158557
sS'ancient'
p1437
F0.00078492935635792783
sS'similarly'
p1438
F0.00066225165562913907
sS'introduction'
p1439
F0.0013245033112582781
sS'data'
p1440
F0.00066225165562913907
sS'interact'
p1441
F0.00099337748344370861
sS'system'
p1442
F0.00078492935635792783
sS'construct'
p1443
F0.00078492935635792783
sS'fiction'
p1444
F0.0015698587127158557
sS'doomsday'
p1445
F0.0015698587127158557
sS'returns'
p1446
F0.00078492935635792783
sS'assumption'
p1447
F0.0013245033112582781
sS'compromise'
p1448
F0.00078492935635792783
sS'observations'
p1449
F0.00078492935635792783
sS'statement'
p1450
F0.0019867549668874172
sS'hollywood'
p1451
F0.00078492935635792783
sS'beneath'
p1452
F0.00078492935635792783
sS'africanamericans'
p1453
F0.00078492935635792783
sS'conduit'
p1454
F0.00078492935635792783
sS'saint'
p1455
F0.00078492935635792783
sS'that'
p1456
F0.0013245033112582781
sS'et'
p1457
F0.00078492935635792783
sS'nobody'
p1458
F0.00099337748344370861
sS'agree'
p1459
F0.00033112582781456954
sS'lists'
p1460
F0.00078492935635792783
sS'approachable'
p1461
F0.00078492935635792783
sS'prometheus'
p1462
F0.0039246467817896386
sS'plantinga'
p1463
F0.00078492935635792783
sS'western'
p1464
F0.00078492935635792783
sS'authors'
p1465
F0.00078492935635792783
sS'nondetectable'
p1466
F0.00066225165562913907
sS'translation'
p1467
F0.00078492935635792783
sS'believe'
p1468
F0.0082781456953642391
sS'white'
p1469
F0.00078492935635792783
sS'11'
p1470
F0.00078492935635792783
sS'10'
p1471
F0.00078492935635792783
sS'b'
F0.0016556291390728477
sS'14'
p1472
F0.00078492935635792783
sS'cardiffs'
p1473
F0.00078492935635792783
sS'martins'
p1474
F0.00078492935635792783
sS'7215'
p1475
F0.00078492935635792783
sS'imputation'
p1476
F0.00078492935635792783
sS'matter'
p1477
F0.0016556291390728477
sS'states'
p1478
F0.00078492935635792783
sS'street'
p1479
F0.0015698587127158557
sS'gottes'
p1480
F0.00078492935635792783
sS'aap'
p1481
F0.0015698587127158557
sS'represents'
p1482
F0.00066225165562913907
sS'naturally'
p1483
F0.00066225165562913907
sS'result'
p1484
F0.00066225165562913907
sS'880'
p1485
F0.0015698587127158557
sS'contentious'
p1486
F0.00066225165562913907
sS'san'
p1487
F0.00078492935635792783
sS'outstanding'
p1488
F0.00078492935635792783
sS'cohen'
p1489
F0.00078492935635792783
sS'contempory'
p1490
F0.00078492935635792783
sS'interpretation'
p1491
F0.00066225165562913907
sS'horrors'
p1492
F0.0015698587127158557
sS'say'
p1493
F0.00066225165562913907
sS'unlikely'
p1494
F0.00099337748344370861
sS'refreshingly'
p1495
F0.00078492935635792783
sS'allen'
p1496
F0.0015698587127158557
sS'turner'
p1497
F0.00078492935635792783
sS'any'
p1498
F0.00078492935635792783
sS'sell'
p1499
F0.0015698587127158557
sS'conversion'
p1500
F0.00066225165562913907
sS'realm'
p1501
F0.00078492935635792783
sS'ideas'
p1502
F0.0019867549668874172
sS'note'
p1503
F0.00099337748344370861
sS'also'
p1504
F0.00099337748344370861
sS'emphasis'
p1505
F0.00078492935635792783
sS'miz'
p1506
F0.00078492935635792783
sS'amusing'
p1507
F0.00078492935635792783
sS'analogy'
p1508
F0.00033112582781456954
sS'destroy'
p1509
F0.00066225165562913907
sS'begin'
p1510
F0.00066225165562913907
sS'towards'
p1511
F0.0013245033112582781
sS'unless'
p1512
F0.00066225165562913907
sS'though'
p1513
F0.00099337748344370861
sS'price'
p1514
F0.00078492935635792783
sS'paid'
p1515
F0.00078492935635792783
sS'figmonetcomcom'
p1516
F0.00078492935635792783
sS'most'
p1517
F0.0019867549668874172
sS'germany'
p1518
F0.0031397174254317113
sS'rejected'
p1519
F0.00078492935635792783
sS'sheets'
p1520
F0.00078492935635792783
sS'claims'
p1521
F0.00099337748344370861
sS'nothing'
p1522
F0.00099337748344370861
sS'america'
p1523
F0.00078492935635792783
sS'pages'
p1524
F0.0031397174254317113
sS'philosophers'
p1525
F0.00066225165562913907
sS'politisches'
p1526
F0.00078492935635792783
sS'especially'
p1527
F0.00066225165562913907
sS'considered'
p1528
F0.00099337748344370861
sS'sometimes'
p1529
F0.0013245033112582781
sS'm'
F0.0015698587127158557
sS'drive'
p1530
F0.00078492935635792783
sS'115719'
p1531
F0.0015698587127158557
sS'face'
p1532
F0.00066225165562913907
sS'mailing'
p1533
F0.00078492935635792783
sS'fact'
p1534
F0.0013245033112582781
sS'choose'
p1535
F0.00066225165562913907
sS'madison'
p1536
F0.00078492935635792783
sS'gold'
p1537
F0.00078492935635792783
sS'show'
p1538
F0.00066225165562913907
sS'german'
p1539
F0.00078492935635792783
sS'agreed'
p1540
F0.00066225165562913907
sS'664'
p1541
F0.00078492935635792783
sS'1266'
p1542
F0.00078492935635792783
sS'religions'
p1543
F0.0046357615894039739
sS'noyes'
p1544
F0.00078492935635792783
sS'radio'
p1545
F0.00078492935635792783
sS'earth'
p1546
F0.0015698587127158557
sS'find'
p1547
F0.0016556291390728477
sS'principal'
p1548
F0.00078492935635792783
sS'giant'
p1549
F0.00078492935635792783
sS'dick'
p1550
F0.0023547880690737832
sS'written'
p1551
F0.0015698587127158557
sS'atrocities'
p1552
F0.00078492935635792783
sS'tries'
p1553
F0.00078492935635792783
sS'541'
p1554
F0.00078492935635792783
sS'postfach'
p1555
F0.0023547880690737832
sS'aids'
p1556
F0.00033112582781456954
sS'watching'
p1557
F0.00066225165562913907
sS'darwin'
p1558
F0.0031397174254317113
sS'do'
p1559
F0.00066225165562913907
sS'atheistic'
p1560
F0.00078492935635792783
sS'ibka'
p1561
F0.0023547880690737832
sS'viewpoint'
p1562
F0.00066225165562913907
sS'means'
p1563
F0.0016556291390728477
sS'de'
p1564
F0.0015698587127158557
sS'criticized'
p1565
F0.00078492935635792783
sS'famous'
p1566
F0.00099337748344370861
sS'12'
p1567
F0.00099337748344370861
sS'reading'
p1568
F0.00078492935635792783
sS'words'
p1569
F0.0016556291390728477
sS'new'
p1570
F0.0031397174254317113
sS'haught'
p1571
F0.00078492935635792783
sS'comply'
p1572
F0.00078492935635792783
sS'holloway'
p1573
F0.00078492935635792783
sS'forbids'
p1574
F0.00078492935635792783
sS'platinga'
p1575
F0.00078492935635792783
sS'evolution'
p1576
F0.0023547880690737832
sS'fallible'
p1577
F0.00078492935635792783
sS'mackies'
p1578
F0.00078492935635792783
sS'countries'
p1579
F0.00099337748344370861
sS'disch'
p1580
F0.00078492935635792783
sS'fields'
p1581
F0.00066225165562913907
sS'versions'
p1582
F0.00078492935635792783
sS'humanism'
p1583
F0.0039246467817896386
sS'bay'
p1584
F0.00078492935635792783
sS'scientist'
p1585
F0.00066225165562913907
sS'humanist'
p1586
F0.00078492935635792783
sS'91605'
p1587
F0.00078492935635792783
sS'including'
p1588
F0.0015698587127158557
sS'7723'
p1589
F0.00078492935635792783
sS'explanations'
p1590
F0.00066225165562913907
sS'wrote'
p1591
F0.0023547880690737832
sS'view'
p1592
F0.0026490066225165563
sS'ethical'
p1593
F0.00078492935635792783
sS'questions'
p1594
F0.0016556291390728477
sS'seite'
p1595
F0.00078492935635792783
sS'national'
p1596
F0.0015698587127158557
sS'n19'
p1597
F0.00078492935635792783
sS'humans'
p1598
F0.0013245033112582781
sS'316'
p1599
F0.00078492935635792783
sS'aah'
p1600
F0.00078492935635792783
sS'schizophrenic'
p1601
F0.00078492935635792783
sS'edition'
p1602
F0.0023547880690737832
sS'lion'
p1603
F0.00078492935635792783
sS'individual'
p1604
F0.00066225165562913907
sS'theocracy'
p1605
F0.00078492935635792783
sS'close'
p1606
F0.00066225165562913907
sS'alternative'
p1607
F0.00078492935635792783
sS'vicars'
p1608
F0.00078492935635792783
sS'planet'
p1609
F0.00078492935635792783
sS'831'
p1610
F0.00078492935635792783
sS'490'
p1611
F0.00078492935635792783
sS'review'
p1612
F0.00078492935635792783
sS'please'
p1613
F0.00099337748344370861
sS'tend'
p1614
F0.0016556291390728477
sS'state'
p1615
F0.002980132450331126
sS'r'
F0.0015698587127158557
sS'closed'
p1616
F0.00078492935635792783
sS'between'
p1617
F0.00099337748344370861
sS'neither'
p1618
F0.00078492935635792783
sS'wc1r'
p1619
F0.0015698587127158557
sS'berkeley'
p1620
F0.00078492935635792783
sS'wide'
p1621
F0.00078492935635792783
sS'available'
p1622
F0.0015698587127158557
sS'majority'
p1623
F0.00066225165562913907
sS'atwood'
p1624
F0.00078492935635792783
sS'sidgwick'
p1625
F0.00078492935635792783
sS'attention'
p1626
F0.00078492935635792783
sS'weak'
p1627
F0.0019867549668874172
sS'jr'
p1628
F0.0023547880690737832
sS'refuting'
p1629
F0.00078492935635792783
sS'joe'
p1630
F0.00078492935635792783
sS'premise'
p1631
F0.00078492935635792783
sS'wp'
p1632
F0.00078492935635792783
sS'article'
p1633
F0.0019867549668874172
sS'atoms'
p1634
F0.00078492935635792783
sS'suppressed'
p1635
F0.00078492935635792783
sS'problem'
p1636
F0.00066225165562913907
sS'2568900'
p1637
F0.00078492935635792783
sS'essentially'
p1638
F0.00099337748344370861
sS'revoked'
p1639
F0.00078492935635792783
sS'ballantine'
p1640
F0.00078492935635792783
sS'always'
p1641
F0.00066225165562913907
sS'according'
p1642
F0.00099337748344370861
sS'edgar'
p1643
F0.00078492935635792783
sS'17701900'
p1644
F0.00078492935635792783
sS'postpaid'
p1645
F0.00078492935635792783
sS'etc'
p1646
F0.00078492935635792783
sS'archiveservermantiscouk'
p1647
F0.00078492935635792783
sS'und'
p1648
F0.0023547880690737832
sS'cover'
p1649
F0.00066225165562913907
sS'reply'
p1650
F0.00078492935635792783
sS'd1000'
p1651
F0.0015698587127158557
sS'argue'
p1652
F0.00099337748344370861
sS'whole'
p1653
F0.00066225165562913907
sS'asked'
p1654
F0.00099337748344370861
sS'baltimore'
p1655
F0.00078492935635792783
sS'grounds'
p1656
F0.00066225165562913907
sS'detailed'
p1657
F0.00078492935635792783
sS'madness'
p1658
F0.00078492935635792783
sS'separation'
p1659
F0.00066225165562913907
sS'point'
p1660
F0.00066225165562913907
sS'reasons'
p1661
F0.00066225165562913907
sS'ca'
p1662
F0.00078492935635792783
sS'unicorns'
p1663
F0.00099337748344370861
sS'period'
p1664
F0.00078492935635792783
sS'2nd'
p1665
F0.00078492935635792783
sS'3005'
p1666
F0.00078492935635792783
sS'canyon'
p1667
F0.00078492935635792783
sS'simply'
p1668
F0.0016556291390728477
sS'seldes'
p1669
F0.00078492935635792783
sS'bizarre'
p1670
F0.00078492935635792783
sS'haughts'
p1671
F0.00078492935635792783
sS'considers'
p1672
F0.00078492935635792783
sS'considering'
p1673
F0.00078492935635792783
sS'late'
p1674
F0.00078492935635792783
sS'8964079'
p1675
F0.00078492935635792783
sS'devil'
p1676
F0.00078492935635792783
sS'described'
p1677
F0.0013245033112582781
sS'raise'
p1678
F0.00078492935635792783
sS'second'
p1679
F0.00078492935635792783
sS'basis'
p1680
F0.00066225165562913907
sS'monthly'
p1681
F0.00078492935635792783
sS'remained'
p1682
F0.00078492935635792783
sS'political'
p1683
F0.00066225165562913907
sS'papsttums'
p1684
F0.00078492935635792783
sS'quickly'
p1685
F0.00078492935635792783
sS'much'
p1686
F0.002317880794701987
sS'punished'
p1687
F0.00078492935635792783
sS'basic'
p1688
F0.00066225165562913907
sS'superhuman'
p1689
F0.00099337748344370861
sS'assassinated'
p1690
F0.00078492935635792783
sS'po'
p1691
F0.0023547880690737832
sS'walter'
p1692
F0.00078492935635792783
sS'19930308134439mantiscouk'
p1693
F0.00033112582781456954
sS'contribute'
p1694
F0.00066225165562913907
sS'assorted'
p1695
F0.0023547880690737832
sS'concerning'
p1696
F0.00099337748344370861
sS'coherence'
p1697
F0.00078492935635792783
sS'convert'
p1698
F0.00066225165562913907
sS'davy'
p1699
F0.00078492935635792783
sS'al'
p1700
F0.00078492935635792783
sS'usage'
p1701
F0.00078492935635792783
sS'abortions'
p1702
F0.00078492935635792783
sS'demand'
p1703
F0.00078492935635792783
sS'general'
p1704
F0.00099337748344370861
sS'developments'
p1705
F0.00078492935635792783
sS'newsanswers7054'
p1706
F0.00078492935635792783
sS'novel'
p1707
F0.0023547880690737832
sS'laser'
p1708
F0.00078492935635792783
sS'look'
p1709
F0.00099337748344370861
sS'gem'
p1710
F0.00078492935635792783
sS'cantaloupesrvcscmueducrabapplesrvcscmuedubb3andrewcmuedunewsseicmueducisohiostateedumagnusacsohiostateeduusenetinscwrueduagatespoolmueduuunetpipexibmpcugmantismathew'
p1711
F0.00078492935635792783
sS'aid'
p1712
F0.00066225165562913907
sS'property'
p1713
F0.00078492935635792783
sS'building'
p1714
F0.00066225165562913907
sS'materialien'
p1715
F0.00078492935635792783
sS'chilling'
p1716
F0.00078492935635792783
sS'nonfiction'
p1717
F0.00078492935635792783
sS'kingdom'
p1718
F0.00078492935635792783
sS'aesthetics'
p1719
F0.00078492935635792783
sS'examines'
p1720
F0.00078492935635792783
sS'examiner'
p1721
F0.00078492935635792783
sS'071'
p1722
F0.0039246467817896386
sS'supposed'
p1723
F0.00066225165562913907
sS'3nl'
p1724
F0.00078492935635792783
sS'ink'
p1725
F0.00078492935635792783
sS'telephone'
p1726
F0.0031397174254317113
sS'altatheismmoderated713'
p1727
F0.00078492935635792783
sS'cant'
p1728
F0.0019867549668874172
sS'someone'
p1729
F0.0013245033112582781
sS'19930329115719mantiscouk'
p1730
F0.00078492935635792783
sS'ironic'
p1731
F0.00078492935635792783
sS'lambs'
p1732
F0.00078492935635792783
sS'foreign'
p1733
F0.00066225165562913907
sS'ie'
p1734
F0.00078492935635792783
sS'decisively'
p1735
F0.00078492935635792783
sS'if'
p1736
F0.0052980132450331126
sS'containing'
p1737
F0.00078492935635792783
sS'clerical'
p1738
F0.00078492935635792783
sS'fate'
p1739
F0.00078492935635792783
sS'retroactively'
p1740
F0.00078492935635792783
sS'secularization'
p1741
F0.00078492935635792783
sS'perhaps'
p1742
F0.00099337748344370861
sS'things'
p1743
F0.0026490066225165563
sS'began'
p1744
F0.00078492935635792783
sS'fallacies'
p1745
F0.00078492935635792783
sS'same'
p1746
F0.0019867549668874172
sS'buddhism'
p1747
F0.00066225165562913907
sS'followers'
p1748
F0.00066225165562913907
sS'19930405122245mantiscouk'
p1749
F0.00033112582781456954
sS'copying'
p1750
F0.00078492935635792783
sS'handmaids'
p1751
F0.00078492935635792783
sS'grows'
p1752
F0.00078492935635792783
sS'ball'
p1753
F0.0015698587127158557
sS'centuries'
p1754
F0.00078492935635792783
sS'novels'
p1755
F0.0015698587127158557
sS'ffrf'
p1756
F0.00078492935635792783
sS'comprehensive'
p1757
F0.0023547880690737832
sS'conceived'
p1758
F0.00078492935635792783
sS'atwoods'
p1759
F0.00078492935635792783
sS'upbringing'
p1760
F0.00066225165562913907
sS'evil'
p1761
F0.00078492935635792783
sS'companion'
p1762
F0.00066225165562913907
sS'delight'
p1763
F0.00078492935635792783
sS'persons'
p1764
F0.00078492935635792783
sS'8ew'
p1765
F0.00078492935635792783
sS'uses'
p1766
F0.00099337748344370861
sS'purpose'
p1767
F0.00099337748344370861
sS'characters'
p1768
F0.0015698587127158557
sS'thoughts'
p1769
F0.00078492935635792783
sS'recent'
p1770
F0.00078492935635792783
sS'older'
p1771
F0.00078492935635792783
sS'1977'
p1772
F0.00078492935635792783
sS'person'
p1773
F0.002980132450331126
sS'theses'
p1774
F0.00078492935635792783
sS'sets'
p1775
F0.00066225165562913907
sS'mizvertrieb'
p1776
F0.00078492935635792783
sS'position'
p1777
F0.00099337748344370861
sS'otherwise'
p1778
F0.00066225165562913907
sS'soviet'
p1779
F0.00099337748344370861
sS'justify'
p1780
F0.0013245033112582781
sS'opinions'
p1781
F0.00078492935635792783
sS'absurdities'
p1782
F0.00078492935635792783
sS'being'
p1783
F0.0026490066225165563
sS'focusses'
p1784
F0.00078492935635792783
sS'presented'
p1785
F0.00066225165562913907
sS'actions'
p1786
F0.00099337748344370861
sS'fundamentalists'
p1787
F0.0015698587127158557
sS'atomic'
p1788
F0.0015698587127158557
sS'human'
p1789
F0.002317880794701987
sS'years'
p1790
F0.00066225165562913907
sS'laurel'
p1791
F0.00078492935635792783
sS'7119'
p1792
F0.00078492935635792783
sS'compared'
p1793
F0.00078492935635792783
sS'death'
p1794
F0.00078492935635792783
sS'bibliography'
p1795
F0.00078492935635792783
sS'campaign'
p1796
F0.00066225165562913907
sS'atheismresources'
p1797
F0.00078492935635792783
sS'womans'
p1798
F0.00078492935635792783
sS'enough'
p1799
F0.00066225165562913907
sS'alternate'
p1800
F0.00078492935635792783
sS'rosa'
p1801
F0.0015698587127158557
sS'hall'
p1802
F0.00078492935635792783
sS'spread'
p1803
F0.00099337748344370861
sS'thoughtprovoking'
p1804
F0.00078492935635792783
sS'questioned'
p1805
F0.00099337748344370861
sS'relevance'
p1806
F0.00078492935635792783
sS'east'
p1807
F0.00078492935635792783
sS'real'
p1808
F0.0013245033112582781
sS'around'
p1809
F0.00066225165562913907
sS'0910309264'
p1810
F0.00078492935635792783
sS'code'
p1811
F0.00066225165562913907
sS'rules'
p1812
F0.0013245033112582781
sS'possible'
p1813
F0.0026490066225165563
sS'admitting'
p1814
F0.00033112582781456954
sS'matters'
p1815
F0.0016556291390728477
sS'game'
p1816
F0.00066225165562913907
sS'droemerknaur'
p1817
F0.00078492935635792783
sS'listening'
p1818
F0.00078492935635792783
sS'press'
p1819
F0.0062794348508634227
sS'accepted'
p1820
F0.00033112582781456954
sS'axiarchism'
p1821
F0.00078492935635792783
sS'ibdk'
p1822
F0.00078492935635792783
sS'59'
p1823
F0.00078492935635792783
sS'd'
F0.00078492935635792783
sS'immorally'
p1824
F0.00066225165562913907
sS'erste'
p1825
F0.00078492935635792783
sS'immoralities'
p1826
F0.0015698587127158557
sS'twisted'
p1827
F0.00078492935635792783
sS'admitted'
p1828
F0.00033112582781456954
sS'server'
p1829
F0.00078492935635792783
sS'informationen'
p1830
F0.00078492935635792783
sS'individuals'
p1831
F0.00099337748344370861
sS'foote'
p1832
F0.0015698587127158557
sS'polished'
p1833
F0.00078492935635792783
sS'mailbased'
p1834
F0.00078492935635792783
sS'everyone'
p1835
F0.00066225165562913907
sS'why'
p1836
F0.00066225165562913907
sS'terminology'
p1837
F0.00078492935635792783
sS'logically'
p1838
F0.00066225165562913907
sS'altanswers126'
p1839
F0.00078492935635792783
sS'old'
p1840
F0.0015698587127158557
sS'classical'
p1841
F0.0015698587127158557
sS'imaginary'
p1842
F0.00066225165562913907
sS'creed'
p1843
F0.0015698587127158557
sS'some'
p1844
F0.0046357615894039739
sS'back'
p1845
F0.00078492935635792783
sS'dead'
p1846
F0.0015698587127158557
sS'53701'
p1847
F0.00078492935635792783
sS'certain'
p1848
F0.00066225165562913907
sS'born'
p1849
F0.00066225165562913907
sS'critique'
p1850
F0.00078492935635792783
sS'24hour'
p1851
F0.00078492935635792783
sS'newsletter'
p1852
F0.00078492935635792783
sS'bantam'
p1853
F0.00078492935635792783
sS'islington'
p1854
F0.00078492935635792783
sS'both'
p1855
F0.00078492935635792783
sS'dull'
p1856
F0.00078492935635792783
sS'contacts'
p1857
F0.00078492935635792783
sS'demonstrates'
p1858
F0.00078492935635792783
sS'unbelief'
p1859
F0.0015698587127158557
sS'legal'
p1860
F0.00078492935635792783
sS'everything'
p1861
F0.00066225165562913907
sS'behave'
p1862
F0.0013245033112582781
sS'meaningful'
p1863
F0.00066225165562913907
sS'statements'
p1864
F0.00078492935635792783
sS'assuming'
p1865
F0.0016556291390728477
sS'hosts'
p1866
F0.00099337748344370861
sS'temple'
p1867
F0.0015698587127158557
sS'refer'
p1868
F0.00099337748344370861
sS'be'
p1869
F0.00099337748344370861
sS'power'
p1870
F0.0013245033112582781
sS'journal'
p1871
F0.0015698587127158557
sS'martin'
p1872
F0.00078492935635792783
sS'pp'
p1873
F0.00078492935635792783
sS'clarendon'
p1874
F0.00078492935635792783
sS'internationaler'
p1875
F0.0015698587127158557
sS'accompanied'
p1876
F0.00078492935635792783
sS'post'
p1877
F0.0015698587127158557
sS'altatheismmoderated727'
p1878
F0.00033112582781456954
sS'0908'
p1879
F0.00078492935635792783
sS'anselm'
p1880
F0.00078492935635792783
sS'zur'
p1881
F0.00078492935635792783
sS'0511211216'
p1882
F0.00078492935635792783
sS'asserting'
p1883
F0.00066225165562913907
sS'hard'
p1884
F0.00066225165562913907
sS'origins'
p1885
F0.00078492935635792783
sS'hopkins'
p1886
F0.00078492935635792783
sS'of'
p1887
F0.002980132450331126
sS'ranges'
p1888
F0.00078492935635792783
sS'assertion'
p1889
F0.00066225165562913907
sS'altatheism51060'
p1890
F0.00033112582781456954
sS'union'
p1891
F0.00066225165562913907
sS'carries'
p1892
F0.00078492935635792783
sS'4679525'
p1893
F0.00078492935635792783
sS'act'
p1894
F0.00066225165562913907
sS'unbelievers'
p1895
F0.00066225165562913907
sS'womens'
p1896
F0.00078492935635792783
sS'rebut'
p1897
F0.00078492935635792783
sS'road'
p1898
F0.0015698587127158557
sS'trilogy'
p1899
F0.00078492935635792783
sS'letters'
p1900
F0.00078492935635792783
sS'14226'
p1901
F0.00078492935635792783
sS'conway'
p1902
F0.00078492935635792783
sS'johns'
p1903
F0.00078492935635792783
sS'dismissively'
p1904
F0.00078492935635792783
sS'intellectual'
p1905
F0.00078492935635792783
sS'signature'
p1906
F0.00066225165562913907
sS'down'
p1907
F0.00078492935635792783
sS'doesnt'
p1908
F0.0019867549668874172
sS'accounts'
p1909
F0.00078492935635792783
sS'1876'
p1910
F0.00033112582781456954
sS'range'
p1911
F0.00078492935635792783
sS'4581244'
p1912
F0.00078492935635792783
sS'fired'
p1913
F0.00078492935635792783
sS'1986'
p1914
F0.00078492935635792783
sS'4rh'
p1915
F0.00078492935635792783
sS'rely'
p1916
F0.00078492935635792783
sS'i'
F0.002980132450331126
sS'1981'
p1917
F0.00078492935635792783
sS'antireligious'
p1918
F0.0016556291390728477
sS'atheisten'
p1919
F0.0015698587127158557
sS'there'
p1920
F0.0036423841059602651
sS'question'
p1921
F0.002317880794701987
sS'philadelphia'
p1922
F0.00078492935635792783
sS'1988'
p1923
F0.00078492935635792783
sS'1989'
p1924
F0.00078492935635792783
sS'atheists'
p1925
F0.024172185430463577
sS'detectable'
p1926
F0.00099337748344370861
sS'handbook'
p1927
F0.00078492935635792783
sS'editor'
p1928
F0.00078492935635792783
sS'maze'
p1929
F0.00078492935635792783
sS'archives'
p1930
F0.00078492935635792783
sS'searches'
p1931
F0.00078492935635792783
sS'750'
p1932
F0.00078492935635792783
sS'north'
p1933
F0.00078492935635792783
sS'complete'
p1934
F0.00066225165562913907
sS'142282197'
p1935
F0.00078492935635792783
sS'phenomena'
p1936
F0.00066225165562913907
sS'122245'
p1937
F0.00066225165562913907
sS'6'
F0.00033112582781456954
sS'conclusively'
p1938
F0.00066225165562913907
sS'but'
p1939
F0.0049668874172185433
sS'volume'
p1940
F0.0015698587127158557
sS'19930301143317mantiscouk'
p1941
F0.00078492935635792783
sS'brain'
p1942
F0.0015698587127158557
sS'library'
p1943
F0.00078492935635792783
sS'newer'
p1944
F0.00078492935635792783
sS'226'
p1945
F0.00078492935635792783
sS'promote'
p1946
F0.00099337748344370861
sS'exhaustive'
p1947
F0.00099337748344370861
sS'altanswers155'
p1948
F0.00033112582781456954
sS'lynn'
p1949
F0.0015698587127158557
sS'woman'
p1950
F0.00078492935635792783
sS'made'
p1951
F0.0016556291390728477
sS'scholarly'
p1952
F0.00078492935635792783
sS'default'
p1953
F0.0013245033112582781
sS'inside'
p1954
F0.00078492935635792783
sS'j'
F0.00078492935635792783
sS'welldefined'
p1955
F0.00099337748344370861
sS'up'
p1956
F0.00066225165562913907
sS'us'
p1957
F0.0023547880690737832
sS'formalistic'
p1958
F0.00078492935635792783
sS'below'
p1959
F0.00078492935635792783
sS'stories'
p1960
F0.0015698587127158557
sS'uh'
p1961
F0.00078492935635792783
sS'140195'
p1962
F0.00078492935635792783
sS'similar'
p1963
F0.00066225165562913907
sS'beliefs'
p1964
F0.0049668874172185433
sS'mackie'
p1965
F0.0015698587127158557
sS'enlighting'
p1966
F0.00078492935635792783
sS'proved'
p1967
F0.00099337748344370861
sS'biblebeliever'
p1968
F0.00078492935635792783
sS'sinful'
p1969
F0.00078492935635792783
sS'describe'
p1970
F0.00078492935635792783
sS'608'
p1971
F0.00078492935635792783
sS'evidence'
p1972
F0.0019867549668874172
sS'd3000'
p1973
F0.00078492935635792783
sS'britain'
p1974
F0.00078492935635792783
sS'exist'
p1975
F0.0056291390728476819
sS'atheismindex'
p1976
F0.00078492935635792783
sS'prayer'
p1977
F0.0013245033112582781
sS'mysteriously'
p1978
F0.00078492935635792783
sS'archive'
p1979
F0.00078492935635792783
sS'beyond'
p1980
F0.00078492935635792783
sS'valis'
p1981
F0.00078492935635792783
sS'biblical'
p1982
F0.00078492935635792783
sS'anthology'
p1983
F0.0023547880690737832
sS'no'
p1984
F0.00099337748344370861
sS'generally'
p1985
F0.0013245033112582781
sS'invalid'
p1986
F0.00099337748344370861
sS'41'
p1987
F0.0015698587127158557
sS'ny'
p1988
F0.0015698587127158557
sS'other'
p1989
F0.00066225165562913907
sS'5'
F0.0013245033112582781
sS'altatheismmoderated'
p1990
F0.00078492935635792783
sS'test'
p1991
F0.00066225165562913907
sS'acceptance'
p1992
F0.00033112582781456954
sS'you'
p1993
F0.0013245033112582781
sS'really'
p1994
F0.0013245033112582781
sS'francisco'
p1995
F0.00078492935635792783
sS'star'
p1996
F0.00078492935635792783
sS'congress'
p1997
F0.0015698587127158557
sS'put'
p1998
F0.00066225165562913907
sS'critiques'
p1999
F0.00078492935635792783
sS'shown'
p2000
F0.00066225165562913907
sS'includes'
p2001
F0.0023547880690737832
sS'margaret'
p2002
F0.00078492935635792783
sS'meaning'
p2003
F0.002980132450331126
sS'important'
p2004
F0.0013245033112582781
sS'lelies'
p2005
F0.00078492935635792783
sS'persecution'
p2006
F0.00078492935635792783
sS'readings'
p2007
F0.00078492935635792783
sS'friends'
p2008
F0.0013245033112582781
sS'philips'
p2009
F0.00078492935635792783
sS'remote'
p2010
F0.00078492935635792783
sS'disbelief'
p2011
F0.00066225165562913907
sS'calls'
p2012
F0.00066225165562913907
sS'assume'
p2013
F0.002317880794701987
sS'values'
p2014
F0.00078492935635792783
sS'contemporary'
p2015
F0.00078492935635792783
sS'berlin'
p2016
F0.0015698587127158557
sS'adequate'
p2017
F0.00033112582781456954
sS'came'
p2018
F0.00066225165562913907
sS'time'
p2019
F0.002317880794701987
sS'push'
p2020
F0.00078492935635792783
sS'n1'
p2021
F0.00078492935635792783
sS'craftsmen'
p2022
F0.00078492935635792783
sS'deluxe'
p2023
F0.00078492935635792783
sS'buffalo'
p2024
F0.0023547880690737832
sS'decision'
p2025
F0.00099337748344370861
stp2026
a.