(lp1
(lp2
(idecisionTree
TreeNode
p3
(dp4
S'attribute'
p5
S'humidity'
p6
sS'children'
p7
(dp8
S'high'
p9
(idecisionTree
TreeNode
p10
(dp11
g5
S'outlook'
p12
sg7
(dp13
S'rainy'
p14
(idecisionTree
TreeNode
p15
(dp16
g5
S'windy'
p17
sg7
(dp18
S'FALSE'
p19
(idecisionTree
TreeNode
p20
(dp21
g5
Nsg7
(dp22
sS'value'
p23
S'yes'
p24
sbsS'TRUE'
p25
(idecisionTree
TreeNode
p26
(dp27
g5
Nsg7
(dp28
sg23
S'no'
p29
sbssg23
NsbsS'overcast'
p30
(idecisionTree
TreeNode
p31
(dp32
g5
Nsg7
(dp33
sg23
S'yes'
p34
sbsS'sunny'
p35
(idecisionTree
TreeNode
p36
(dp37
g5
Nsg7
(dp38
sg23
S'no'
p39
sbssg23
NsbsS'normal'
p40
(idecisionTree
TreeNode
p41
(dp42
g5
Nsg7
(dp43
sg23
S'yes'
p44
sbssg23
Nsbag8
aa(lp45
g10
ag13
aa(lp46
g15
ag18
aa(lp47
(idecisionTree
TreeNode
p48
(dp49
g5
g12
sg7
(dp50
g14
(idecisionTree
TreeNode
p51
(dp52
g5
g17
sg7
(dp53
g19
(idecisionTree
TreeNode
p54
(dp55
g5
Nsg7
(dp56
sg23
S'yes'
p57
sbsg25
(idecisionTree
TreeNode
p58
(dp59
g5
Nsg7
(dp60
sg23
S'no'
p61
sbssg23
Nsbsg30
(idecisionTree
TreeNode
p62
(dp63
g5
Nsg7
(dp64
sg23
g34
sbsg35
(idecisionTree
TreeNode
p65
(dp66
g5
S'temperature'
p67
sg7
(dp68
S'hot'
p69
(idecisionTree
TreeNode
p70
(dp71
g5
Nsg7
(dp72
sg23
S'no'
p73
sbsS'mild'
p74
(idecisionTree
TreeNode
p75
(dp76
g5
Nsg7
(dp77
sg23
g39
sbsS'cool'
p78
(idecisionTree
TreeNode
p79
(dp80
g5
Nsg7
(dp81
sg23
S'yes'
p82
sbssg23
Nsbssg23
Nsbag50
aa(lp83
g51
ag53
aa(lp84
g65
ag68
aa(lp85
(idecisionTree
TreeNode
p86
(dp87
g5
g12
sg7
(dp88
g14
(idecisionTree
TreeNode
p89
(dp90
g5
g17
sg7
(dp91
g19
(idecisionTree
TreeNode
p92
(dp93
g5
Nsg7
(dp94
sg23
g24
sbsg25
(idecisionTree
TreeNode
p95
(dp96
g5
Nsg7
(dp97
sg23
g61
sbssg23
Nsbsg30
(idecisionTree
TreeNode
p98
(dp99
g5
Nsg7
(dp100
sg23
S'yes'
p101
sbsg35
(idecisionTree
TreeNode
p102
(dp103
g5
g6
sg7
(dp104
g9
(idecisionTree
TreeNode
p105
(dp106
g5
Nsg7
(dp107
sg23
g73
sbsg40
(idecisionTree
TreeNode
p108
(dp109
g5
Nsg7
(dp110
sg23
g44
sbssg23
Nsbssg23
Nsbag88
aa(lp111
g89
ag91
aa(lp112
g102
ag104
aa(lp113
(idecisionTree
TreeNode
p114
(dp115
g5
g67
sg7
(dp116
g69
(idecisionTree
TreeNode
p117
(dp118
g5
g12
sg7
(dp119
g14
(idecisionTree
TreeNode
p120
(dp121
g5
Nsg7
(dp122
sg23
g73
sbsg30
(idecisionTree
TreeNode
p123
(dp124
g5
Nsg7
(dp125
sg23
g101
sbsg35
(idecisionTree
TreeNode
p126
(dp127
g5
Nsg7
(dp128
sg23
g73
sbssg23
Nsbsg74
(idecisionTree
TreeNode
p129
(dp130
g5
Nsg7
(dp131
sg23
g44
sbsg78
(idecisionTree
TreeNode
p132
(dp133
g5
g12
sg7
(dp134
g14
(idecisionTree
TreeNode
p135
(dp136
g5
g17
sg7
(dp137
g19
(idecisionTree
TreeNode
p138
(dp139
g5
Nsg7
(dp140
sg23
g57
sbsg25
(idecisionTree
TreeNode
p141
(dp142
g5
Nsg7
(dp143
sg23
g61
sbssg23
Nsbsg30
(idecisionTree
TreeNode
p144
(dp145
g5
Nsg7
(dp146
sg23
S'yes'
p147
sbsg35
(idecisionTree
TreeNode
p148
(dp149
g5
Nsg7
(dp150
sg23
g82
sbssg23
Nsbssg23
Nsbag116
aa(lp151
g117
ag119
aa(lp152
g132
ag134
aa(lp153
g135
ag137
aa(lp154
(idecisionTree
TreeNode
p155
(dp156
g5
g12
sg7
(dp157
g14
(idecisionTree
TreeNode
p158
(dp159
g5
g17
sg7
(dp160
g19
(idecisionTree
TreeNode
p161
(dp162
g5
Nsg7
(dp163
sg23
g24
sbsg25
(idecisionTree
TreeNode
p164
(dp165
g5
Nsg7
(dp166
sg23
g61
sbssg23
Nsbsg30
(idecisionTree
TreeNode
p167
(dp168
g5
Nsg7
(dp169
sg23
g101
sbsg35
(idecisionTree
TreeNode
p170
(dp171
g5
g6
sg7
(dp172
g9
(idecisionTree
TreeNode
p173
(dp174
g5
Nsg7
(dp175
sg23
g73
sbsg40
(idecisionTree
TreeNode
p176
(dp177
g5
Nsg7
(dp178
sg23
g44
sbssg23
Nsbssg23
Nsbag157
aa(lp179
g158
ag160
aa(lp180
g170
ag172
aa.